(lp0
(lp1
(I0
I1
tp2
a(I45
I3
tp3
a(I125
I2
tp4
a(I388
I1
tp5
a(I490
I2
tp6
a(I553
I2
tp7
a(I635
I1
tp8
a(I1482
I1
tp9
a(I1566
I2
tp10
a(I1926
I2
tp11
a(I2093
I2
tp12
a(I2108
I1
tp13
a(I2518
I1
tp14
a(I2639
I1
tp15
a(I2775
I2
tp16
a(I3187
I2
tp17
a(I3340
I1
tp18
a(I3573
I3
tp19
a(I3885
I2
tp20
a(I4201
I2
tp21
a(I4209
I2
tp22
aa(lp23
(I0
I2
tp24
a(I45
I4
tp25
a(I125
I3
tp26
a(I250
I1
tp27
a(I330
I1
tp28
a(I388
I2
tp29
a(I410
I2
tp30
a(I520
I1
tp31
a(I528
I1
tp32
a(I528
I2
tp33
a(I546
I1
tp34
a(I630
I1
tp35
a(I630
I2
tp36
a(I661
I2
tp37
a(I661
I3
tp38
a(I829
I1
tp39
a(I890
I1
tp40
a(I890
I2
tp41
a(I991
I1
tp42
a(I1100
I1
tp43
a(I1112
I1
tp44
a(I1156
I1
tp45
a(I1197
I1
tp46
a(I1197
I3
tp47
a(I1344
I1
tp48
a(I1554
I1
tp49
a(I1773
I2
tp50
a(I2064
I1
tp51
a(I2110
I2
tp52
a(I2184
I2
tp53
aa(lp54
(I1
I2
tp55
a(I178
I3
tp56
a(I419
I3
tp57
a(I1760
I2
tp58
a(I1935
I2
tp59
a(I2134
I1
tp60
a(I2166
I3
tp61
a(I2345
I1
tp62
a(I2582
I2
tp63
a(I2898
I2
tp64
a(I3138
I3
tp65
a(I3600
I2
tp66
a(I3677
I2
tp67
a(I3737
I4
tp68
a(I4039
I1
tp69
a(I4198
I2
tp70
a(I4422
I1
tp71
a(I4777
I2
tp72
a(I5044
I1
tp73
aa(lp74
(I1
I3
tp75
a(I5
I2
tp76
a(I5
I3
tp77
a(I5
I4
tp78
a(I73
I2
tp79
a(I73
I3
tp80
a(I419
I4
tp81
a(I624
I1
tp82
a(I624
I2
tp83
a(I648
I1
tp84
a(I914
I1
tp85
a(I914
I2
tp86
a(I986
I2
tp87
a(I1138
I1
tp88
a(I1540
I1
tp89
a(I1540
I2
tp90
a(I1944
I1
tp91
a(I2408
I2
tp92
a(I2408
I3
tp93
a(I2656
I1
tp94
a(I2656
I2
tp95
a(I2898
I3
tp96
a(I2940
I2
tp97
a(I3423
I2
tp98
a(I3423
I3
tp99
a(I3600
I3
tp100
a(I3668
I2
tp101
a(I3751
I1
tp102
a(I3837
I1
tp103
a(I3837
I2
tp104
a(I3983
I2
tp105
a(I3983
I3
tp106
a(I4070
I1
tp107
a(I4279
I1
tp108
a(I4279
I2
tp109
a(I4726
I2
tp110
a(I4768
I1
tp111
a(I4835
I2
tp112
a(I4919
I2
tp113
a(I4919
I3
tp114
a(I5044
I2
tp115
aa(lp116
(I4
I2
tp117
a(I4
I3
tp118
a(I4
I4
tp119
aa(lp120
a(lp121
a(lp122
a(lp123
a(lp124
a(lp125
(I17
I1
tp126
a(I288
I1
tp127
a(I322
I1
tp128
a(I1214
I2
tp129
a(I1530
I2
tp130
a(I1687
I2
tp131
a(I1732
I1
tp132
a(I2078
I1
tp133
a(I2100
I1
tp134
a(I2114
I2
tp135
a(I2258
I2
tp136
a(I2487
I1
tp137
a(I2763
I2
tp138
a(I2864
I3
tp139
a(I2890
I3
tp140
a(I3123
I1
tp141
a(I3830
I2
tp142
a(I3850
I3
tp143
a(I4259
I3
tp144
a(I4315
I1
tp145
a(I4963
I1
tp146
a(I4971
I1
tp147
a(I5047
I2
tp148
aa(lp149
(I18
I1
tp150
a(I79
I1
tp151
aa(lp152
(I18
I2
tp153
a(I64
I2
tp154
a(I70
I1
tp155
a(I79
I2
tp156
a(I141
I1
tp157
a(I692
I1
tp158
a(I752
I2
tp159
a(I777
I2
tp160
a(I791
I2
tp161
a(I839
I1
tp162
a(I845
I1
tp163
a(I1054
I1
tp164
a(I1373
I2
tp165
a(I1535
I2
tp166
a(I1637
I1
tp167
a(I1716
I2
tp168
a(I1754
I3
tp169
a(I1867
I2
tp170
a(I2077
I2
tp171
a(I2213
I1
tp172
a(I2335
I2
tp173
a(I2779
I2
tp174
a(I2842
I1
tp175
a(I2918
I2
tp176
a(I2990
I4
tp177
a(I3625
I2
tp178
a(I3844
I3
tp179
a(I3875
I2
tp180
a(I4285
I2
tp181
a(I4838
I1
tp182
a(I5023
I1
tp183
a(I5035
I2
tp184
aa(lp185
(I19
I1
tp186
a(I19
I2
tp187
a(I19
I3
tp188
a(I19
I4
tp189
a(I30
I1
tp190
a(I30
I2
tp191
a(I101
I1
tp192
a(I101
I2
tp193
a(I144
I3
tp194
a(I144
I4
tp195
a(I158
I1
tp196
a(I158
I2
tp197
a(I158
I3
tp198
a(I234
I2
tp199
a(I324
I1
tp200
a(I324
I2
tp201
a(I337
I1
tp202
a(I337
I2
tp203
a(I362
I3
tp204
a(I365
I1
tp205
a(I374
I1
tp206
a(I396
I1
tp207
a(I396
I2
tp208
a(I408
I2
tp209
a(I408
I3
tp210
a(I523
I2
tp211
a(I632
I2
tp212
a(I632
I3
tp213
a(I671
I1
tp214
a(I671
I2
tp215
a(I672
I2
tp216
a(I672
I3
tp217
a(I697
I1
tp218
a(I697
I2
tp219
a(I730
I1
tp220
a(I906
I1
tp221
a(I1004
I2
tp222
a(I1004
I3
tp223
a(I1006
I1
tp224
a(I1028
I2
tp225
a(I1184
I1
tp226
a(I1202
I3
tp227
a(I1234
I2
tp228
a(I1251
I2
tp229
a(I1251
I3
tp230
a(I1293
I1
tp231
a(I1293
I2
tp232
a(I1399
I1
tp233
a(I1399
I2
tp234
a(I1437
I2
tp235
a(I1453
I2
tp236
a(I1568
I1
tp237
a(I1572
I1
tp238
a(I1586
I1
tp239
a(I1705
I1
tp240
a(I1705
I2
tp241
a(I1705
I3
tp242
a(I1705
I4
tp243
a(I1782
I2
tp244
a(I1803
I3
tp245
a(I1803
I4
tp246
a(I1856
I1
tp247
a(I2050
I2
tp248
a(I2116
I1
tp249
a(I2146
I3
tp250
a(I2147
I1
tp251
a(I2221
I1
tp252
a(I2309
I1
tp253
a(I2309
I2
tp254
a(I2309
I3
tp255
a(I2342
I2
tp256
a(I2352
I2
tp257
a(I2369
I1
tp258
a(I2493
I1
tp259
a(I2567
I1
tp260
a(I2567
I2
tp261
a(I2630
I1
tp262
a(I2630
I2
tp263
a(I2831
I1
tp264
a(I3028
I1
tp265
a(I3057
I2
tp266
a(I3057
I3
tp267
a(I3070
I2
tp268
a(I3116
I1
tp269
a(I3129
I2
tp270
a(I3144
I2
tp271
a(I3152
I1
tp272
a(I3313
I1
tp273
a(I3313
I2
tp274
a(I3390
I3
tp275
a(I3412
I3
tp276
a(I3412
I4
tp277
a(I3431
I2
tp278
a(I3431
I3
tp279
a(I3684
I3
tp280
a(I3685
I1
tp281
a(I3756
I2
tp282
a(I3925
I1
tp283
a(I3925
I2
tp284
a(I3998
I2
tp285
a(I4064
I1
tp286
a(I4084
I2
tp287
a(I4167
I1
tp288
a(I4210
I1
tp289
a(I4250
I1
tp290
a(I4250
I2
tp291
a(I4301
I2
tp292
a(I4380
I1
tp293
a(I4380
I2
tp294
a(I4380
I3
tp295
a(I4435
I1
tp296
a(I4528
I2
tp297
a(I4559
I1
tp298
a(I4565
I1
tp299
a(I4565
I2
tp300
a(I4628
I1
tp301
a(I4632
I1
tp302
a(I4632
I2
tp303
a(I4632
I3
tp304
a(I4713
I2
tp305
a(I4713
I3
tp306
a(I4824
I2
tp307
a(I4868
I1
tp308
aa(lp309
a(lp310
a(lp311
a(lp312
(I21
I1
tp313
a(I106
I2
tp314
a(I231
I2
tp315
a(I456
I1
tp316
a(I537
I2
tp317
a(I654
I1
tp318
a(I1254
I4
tp319
a(I1287
I4
tp320
a(I2139
I2
tp321
a(I2552
I2
tp322
a(I2658
I1
tp323
a(I2839
I1
tp324
a(I3221
I1
tp325
a(I3282
I2
tp326
a(I3333
I1
tp327
a(I3692
I2
tp328
a(I4489
I1
tp329
aa(lp330
(I21
I2
tp331
a(I106
I3
tp332
aa(lp333
(I22
I1
tp334
a(I99
I1
tp335
a(I99
I2
tp336
a(I237
I2
tp337
a(I237
I3
tp338
a(I398
I1
tp339
a(I477
I2
tp340
a(I640
I3
tp341
a(I742
I2
tp342
a(I742
I3
tp343
a(I869
I2
tp344
a(I869
I3
tp345
a(I882
I2
tp346
a(I1152
I1
tp347
a(I1152
I2
tp348
a(I1326
I1
tp349
a(I1479
I1
tp350
a(I1479
I2
tp351
a(I1479
I3
tp352
a(I1479
I4
tp353
a(I1617
I5
tp354
a(I1806
I1
tp355
a(I1806
I2
tp356
a(I1850
I1
tp357
a(I2095
I1
tp358
a(I4662
I1
tp359
aa(lp360
(I22
I2
tp361
a(I357
I1
tp362
a(I696
I2
tp363
a(I742
I4
tp364
a(I869
I4
tp365
a(I1152
I3
tp366
a(I1271
I1
tp367
a(I1326
I2
tp368
a(I1469
I1
tp369
a(I1725
I1
tp370
a(I1831
I1
tp371
a(I2095
I2
tp372
a(I2932
I1
tp373
a(I3050
I1
tp374
a(I3413
I1
tp375
a(I3453
I1
tp376
a(I3856
I2
tp377
a(I4082
I3
tp378
a(I4459
I2
tp379
a(I4955
I2
tp380
aa(lp381
(I22
I3
tp382
a(I107
I1
tp383
a(I357
I2
tp384
a(I524
I2
tp385
a(I696
I3
tp386
a(I735
I1
tp387
a(I835
I1
tp388
a(I907
I2
tp389
a(I1014
I1
tp390
a(I1084
I1
tp391
a(I1271
I2
tp392
a(I1281
I1
tp393
a(I1287
I1
tp394
a(I1326
I3
tp395
a(I1469
I2
tp396
a(I1725
I2
tp397
a(I1831
I2
tp398
a(I2095
I3
tp399
a(I2338
I1
tp400
a(I2449
I1
tp401
a(I2698
I2
tp402
a(I2861
I2
tp403
a(I2894
I2
tp404
a(I2932
I2
tp405
a(I3050
I2
tp406
a(I3413
I2
tp407
a(I3453
I2
tp408
a(I3523
I2
tp409
a(I3613
I3
tp410
a(I3791
I1
tp411
a(I3856
I3
tp412
a(I4459
I3
tp413
a(I4703
I2
tp414
a(I4744
I1
tp415
a(I4849
I1
tp416
a(I4955
I3
tp417
aa(lp418
(I22
I4
tp419
a(I107
I2
tp420
a(I357
I3
tp421
a(I907
I3
tp422
a(I1084
I2
tp423
a(I1254
I2
tp424
a(I1271
I3
tp425
a(I1281
I2
tp426
a(I1287
I2
tp427
a(I1326
I4
tp428
a(I1469
I3
tp429
a(I2095
I4
tp430
a(I2338
I2
tp431
a(I2698
I3
tp432
a(I2894
I3
tp433
a(I3050
I3
tp434
a(I4459
I4
tp435
a(I4703
I3
tp436
a(I4744
I2
tp437
aa(lp438
(I24
I2
tp439
a(I229
I1
tp440
a(I240
I2
tp441
a(I452
I1
tp442
a(I709
I3
tp443
a(I838
I2
tp444
a(I1118
I1
tp445
a(I1672
I2
tp446
a(I2279
I4
tp447
a(I2992
I2
tp448
a(I3212
I2
tp449
a(I3933
I3
tp450
a(I3953
I2
tp451
a(I4329
I3
tp452
a(I4780
I1
tp453
aa(lp454
(I24
I3
tp455
a(I154
I1
tp456
a(I229
I2
tp457
a(I240
I3
tp458
a(I435
I1
tp459
a(I551
I1
tp460
a(I930
I1
tp461
a(I1118
I2
tp462
a(I1368
I1
tp463
a(I1411
I1
tp464
a(I1672
I3
tp465
a(I2336
I2
tp466
a(I2388
I1
tp467
a(I2578
I1
tp468
a(I2900
I1
tp469
a(I2992
I3
tp470
a(I3147
I1
tp471
a(I3212
I3
tp472
a(I3487
I1
tp473
a(I3620
I1
tp474
a(I4014
I1
tp475
a(I4382
I2
tp476
a(I4403
I1
tp477
a(I4557
I1
tp478
a(I4780
I2
tp479
aa(lp480
(I24
I4
tp481
a(I240
I4
tp482
a(I323
I2
tp483
a(I655
I1
tp484
a(I781
I1
tp485
a(I816
I1
tp486
a(I856
I2
tp487
a(I2256
I1
tp488
a(I2257
I1
tp489
a(I2536
I1
tp490
a(I2857
I1
tp491
a(I2900
I2
tp492
a(I2992
I4
tp493
a(I3147
I2
tp494
a(I3620
I2
tp495
a(I3886
I2
tp496
a(I4014
I2
tp497
a(I4382
I3
tp498
a(I4403
I2
tp499
a(I4557
I2
tp500
a(I4925
I1
tp501
aa(lp502
(I24
I5
tp503
a(I65
I2
tp504
a(I240
I5
tp505
a(I395
I2
tp506
a(I655
I2
tp507
a(I781
I2
tp508
a(I816
I2
tp509
a(I856
I3
tp510
a(I2256
I2
tp511
a(I2525
I2
tp512
a(I2536
I2
tp513
a(I2857
I2
tp514
a(I3147
I3
tp515
a(I3620
I3
tp516
a(I3662
I1
tp517
a(I4014
I3
tp518
a(I4382
I4
tp519
a(I4403
I3
tp520
a(I4557
I3
tp521
a(I4925
I2
tp522
aa(lp523
(I25
I2
tp524
a(I581
I2
tp525
a(I738
I2
tp526
a(I1132
I2
tp527
a(I1284
I1
tp528
a(I1524
I3
tp529
a(I1722
I2
tp530
a(I1942
I2
tp531
a(I2126
I1
tp532
a(I2149
I1
tp533
a(I2886
I2
tp534
a(I2923
I2
tp535
a(I3163
I1
tp536
a(I3571
I1
tp537
a(I3749
I1
tp538
a(I3950
I2
tp539
a(I4197
I3
tp540
aa(lp541
(I25
I3
tp542
a(I126
I2
tp543
a(I581
I3
tp544
a(I738
I3
tp545
a(I1067
I2
tp546
a(I1154
I1
tp547
a(I1237
I2
tp548
a(I1301
I2
tp549
a(I1442
I1
tp550
a(I1524
I4
tp551
a(I1722
I3
tp552
a(I1767
I1
tp553
a(I2713
I1
tp554
a(I2753
I1
tp555
a(I2841
I1
tp556
a(I2879
I1
tp557
a(I2886
I3
tp558
a(I3017
I1
tp559
a(I3163
I2
tp560
a(I3749
I2
tp561
a(I3892
I2
tp562
a(I3897
I3
tp563
a(I4607
I2
tp564
aa(lp565
(I25
I4
tp566
a(I126
I3
tp567
a(I527
I1
tp568
a(I570
I2
tp569
a(I1067
I3
tp570
a(I1154
I2
tp571
a(I1157
I1
tp572
a(I1237
I3
tp573
a(I1301
I3
tp574
a(I1414
I1
tp575
a(I1442
I2
tp576
a(I1626
I1
tp577
a(I1722
I4
tp578
a(I1828
I1
tp579
a(I2164
I2
tp580
a(I2661
I1
tp581
a(I2713
I2
tp582
a(I2753
I2
tp583
a(I2841
I2
tp584
a(I2890
I1
tp585
a(I3082
I2
tp586
a(I3163
I3
tp587
a(I3219
I2
tp588
a(I3530
I1
tp589
a(I3850
I1
tp590
a(I3892
I3
tp591
a(I4951
I1
tp592
aa(lp593
(I27
I1
tp594
a(I121
I2
tp595
a(I214
I1
tp596
a(I214
I2
tp597
a(I214
I3
tp598
a(I218
I1
tp599
a(I218
I2
tp600
a(I230
I1
tp601
a(I230
I2
tp602
a(I242
I2
tp603
a(I242
I3
tp604
a(I242
I4
tp605
a(I263
I1
tp606
a(I263
I2
tp607
a(I274
I1
tp608
a(I274
I2
tp609
a(I285
I2
tp610
a(I285
I3
tp611
a(I293
I1
tp612
a(I299
I1
tp613
a(I299
I2
tp614
a(I334
I1
tp615
a(I375
I2
tp616
a(I412
I1
tp617
a(I412
I2
tp618
a(I419
I1
tp619
a(I419
I2
tp620
a(I509
I1
tp621
a(I509
I2
tp622
a(I509
I3
tp623
a(I563
I2
tp624
a(I626
I1
tp625
a(I627
I1
tp626
a(I627
I2
tp627
a(I651
I2
tp628
a(I651
I3
tp629
a(I721
I1
tp630
a(I721
I2
tp631
a(I749
I2
tp632
a(I756
I1
tp633
a(I756
I2
tp634
a(I808
I1
tp635
a(I826
I1
tp636
a(I826
I2
tp637
a(I865
I2
tp638
a(I897
I1
tp639
a(I921
I1
tp640
a(I945
I1
tp641
a(I945
I2
tp642
a(I964
I2
tp643
a(I967
I1
tp644
a(I993
I1
tp645
a(I1036
I1
tp646
a(I1036
I2
tp647
a(I1045
I1
tp648
a(I1045
I2
tp649
a(I1059
I2
tp650
a(I1070
I1
tp651
a(I1119
I3
tp652
a(I1119
I4
tp653
a(I1146
I2
tp654
a(I1146
I3
tp655
a(I1170
I2
tp656
a(I1221
I2
tp657
a(I1221
I3
tp658
a(I1257
I1
tp659
a(I1257
I2
tp660
a(I1261
I1
tp661
a(I1261
I2
tp662
a(I1277
I1
tp663
a(I1277
I2
tp664
a(I1347
I2
tp665
a(I1347
I3
tp666
a(I1403
I2
tp667
a(I1403
I3
tp668
a(I1416
I2
tp669
a(I1455
I1
tp670
a(I1455
I2
tp671
a(I1457
I1
tp672
a(I1534
I1
tp673
a(I1534
I2
tp674
a(I1541
I1
tp675
a(I1548
I2
tp676
a(I1548
I3
tp677
a(I1564
I2
tp678
a(I1564
I3
tp679
a(I1564
I4
tp680
a(I1577
I2
tp681
a(I1608
I2
tp682
a(I1608
I3
tp683
a(I1608
I4
tp684
a(I1632
I2
tp685
a(I1634
I1
tp686
a(I1673
I1
tp687
a(I1685
I2
tp688
a(I1685
I3
tp689
a(I1685
I4
tp690
a(I1708
I1
tp691
a(I1724
I2
tp692
a(I1724
I3
tp693
a(I1750
I1
tp694
a(I1750
I2
tp695
a(I1827
I1
tp696
a(I1918
I1
tp697
a(I1935
I1
tp698
a(I1964
I1
tp699
a(I2065
I2
tp700
a(I2067
I1
tp701
a(I2067
I2
tp702
a(I2085
I2
tp703
a(I2085
I3
tp704
a(I2121
I1
tp705
a(I2130
I2
tp706
a(I2130
I3
tp707
a(I2130
I4
tp708
a(I2148
I2
tp709
a(I2166
I2
tp710
a(I2182
I1
tp711
a(I2192
I1
tp712
a(I2192
I2
tp713
a(I2192
I3
tp714
a(I2206
I2
tp715
a(I2239
I3
tp716
a(I2239
I4
tp717
a(I2280
I1
tp718
a(I2380
I1
tp719
a(I2445
I3
tp720
a(I2539
I3
tp721
a(I2582
I1
tp722
a(I2625
I2
tp723
a(I2625
I3
tp724
a(I2654
I2
tp725
a(I2666
I2
tp726
a(I2739
I1
tp727
a(I2744
I1
tp728
a(I2744
I2
tp729
a(I2791
I1
tp730
a(I2791
I2
tp731
a(I2827
I1
tp732
a(I2827
I2
tp733
a(I2833
I3
tp734
a(I2833
I4
tp735
a(I2874
I1
tp736
a(I2898
I1
tp737
a(I2935
I1
tp738
a(I2954
I1
tp739
a(I2954
I2
tp740
a(I2954
I3
tp741
a(I2970
I1
tp742
a(I2971
I2
tp743
a(I2977
I1
tp744
a(I3122
I1
tp745
a(I3138
I2
tp746
a(I3218
I1
tp747
a(I3218
I2
tp748
a(I3218
I3
tp749
a(I3218
I4
tp750
a(I3240
I2
tp751
a(I3295
I1
tp752
a(I3295
I2
tp753
a(I3342
I2
tp754
a(I3342
I3
tp755
a(I3342
I4
tp756
a(I3379
I1
tp757
a(I3428
I1
tp758
a(I3435
I1
tp759
a(I3439
I1
tp760
a(I3516
I1
tp761
a(I3560
I1
tp762
a(I3560
I2
tp763
a(I3560
I3
tp764
a(I3562
I1
tp765
a(I3592
I3
tp766
a(I3595
I2
tp767
a(I3600
I1
tp768
a(I3677
I1
tp769
a(I3677
I3
tp770
a(I3737
I2
tp771
a(I3737
I3
tp772
a(I3745
I3
tp773
a(I3759
I1
tp774
a(I3766
I2
tp775
a(I3813
I1
tp776
a(I3813
I2
tp777
a(I3853
I2
tp778
a(I3871
I1
tp779
a(I3873
I2
tp780
a(I3873
I3
tp781
a(I3890
I1
tp782
a(I3902
I1
tp783
a(I3902
I2
tp784
a(I3926
I1
tp785
a(I3926
I2
tp786
a(I3948
I2
tp787
a(I3954
I2
tp788
a(I3957
I2
tp789
a(I3957
I3
tp790
a(I3987
I2
tp791
a(I4021
I1
tp792
a(I4021
I2
tp793
a(I4022
I1
tp794
a(I4030
I3
tp795
a(I4045
I1
tp796
a(I4099
I1
tp797
a(I4117
I2
tp798
a(I4117
I3
tp799
a(I4160
I2
tp800
a(I4176
I1
tp801
a(I4198
I1
tp802
a(I4219
I1
tp803
a(I4278
I2
tp804
a(I4287
I1
tp805
a(I4288
I1
tp806
a(I4288
I2
tp807
a(I4327
I1
tp808
a(I4327
I2
tp809
a(I4399
I2
tp810
a(I4409
I1
tp811
a(I4409
I2
tp812
a(I4444
I2
tp813
a(I4444
I3
tp814
a(I4506
I2
tp815
a(I4534
I1
tp816
a(I4552
I1
tp817
a(I4552
I2
tp818
a(I4567
I2
tp819
a(I4571
I1
tp820
a(I4573
I1
tp821
a(I4573
I2
tp822
a(I4615
I1
tp823
a(I4615
I2
tp824
a(I4615
I3
tp825
a(I4619
I1
tp826
a(I4619
I2
tp827
a(I4639
I1
tp828
a(I4639
I2
tp829
a(I4639
I3
tp830
a(I4702
I1
tp831
a(I4702
I2
tp832
a(I4739
I1
tp833
a(I4777
I1
tp834
a(I4880
I1
tp835
a(I4892
I2
tp836
a(I4895
I1
tp837
a(I4895
I2
tp838
a(I4900
I2
tp839
a(I4949
I2
tp840
a(I4949
I3
tp841
a(I4954
I2
tp842
a(I4985
I2
tp843
a(I4985
I3
tp844
a(I5032
I1
tp845
aa(lp846
a(lp847
a(lp848
(I33
I1
tp849
a(I88
I1
tp850
a(I459
I4
tp851
a(I670
I3
tp852
a(I867
I2
tp853
a(I946
I2
tp854
a(I1304
I1
tp855
a(I1749
I2
tp856
a(I1749
I3
tp857
a(I1772
I1
tp858
a(I1878
I1
tp859
a(I2168
I2
tp860
a(I2373
I2
tp861
a(I2373
I3
tp862
a(I2458
I3
tp863
a(I2500
I1
tp864
a(I2599
I1
tp865
a(I2642
I1
tp866
a(I2819
I1
tp867
a(I2934
I4
tp868
a(I2964
I1
tp869
a(I3111
I1
tp870
a(I3320
I1
tp871
a(I3354
I1
tp872
a(I3362
I1
tp873
a(I3469
I2
tp874
a(I3469
I3
tp875
a(I3543
I2
tp876
a(I3543
I3
tp877
a(I3969
I1
tp878
a(I3989
I1
tp879
a(I4141
I1
tp880
a(I4154
I1
tp881
a(I4165
I2
tp882
a(I4298
I3
tp883
a(I4370
I2
tp884
a(I4446
I1
tp885
a(I4547
I1
tp886
a(I4626
I1
tp887
a(I4641
I1
tp888
a(I4656
I1
tp889
a(I4809
I1
tp890
a(I4968
I2
tp891
aa(lp892
(I33
I2
tp893
a(I52
I1
tp894
a(I498
I1
tp895
a(I733
I1
tp896
a(I1017
I2
tp897
a(I1567
I1
tp898
aa(lp899
(I39
I1
tp900
a(I510
I1
tp901
a(I1352
I2
tp902
a(I1504
I2
tp903
a(I1612
I4
tp904
a(I1670
I3
tp905
a(I1791
I1
tp906
a(I1927
I2
tp907
a(I2453
I2
tp908
a(I3139
I3
tp909
a(I3353
I1
tp910
a(I3392
I1
tp911
a(I3475
I2
tp912
a(I3947
I2
tp913
a(I4108
I3
tp914
a(I4652
I3
tp915
a(I4950
I1
tp916
a(I5019
I3
tp917
aa(lp918
(I45
I2
tp919
a(I553
I1
tp920
a(I706
I3
tp921
a(I904
I2
tp922
a(I910
I1
tp923
a(I1030
I2
tp924
a(I1332
I2
tp925
a(I1566
I1
tp926
a(I1926
I1
tp927
a(I2093
I1
tp928
a(I2649
I4
tp929
a(I2737
I3
tp930
a(I2775
I1
tp931
a(I3573
I2
tp932
a(I3885
I1
tp933
a(I3986
I2
tp934
a(I4201
I1
tp935
a(I4333
I2
tp936
a(I4337
I2
tp937
aa(lp938
a(lp939
a(lp940
(I47
I2
tp941
aa(lp942
(I47
I3
tp943
a(I248
I1
tp944
a(I248
I2
tp945
a(I280
I1
tp946
a(I280
I2
tp947
a(I280
I3
tp948
a(I295
I1
tp949
a(I369
I1
tp950
a(I415
I3
tp951
a(I426
I2
tp952
a(I652
I1
tp953
a(I908
I1
tp954
a(I913
I1
tp955
a(I948
I3
tp956
a(I1117
I2
tp957
a(I1234
I3
tp958
a(I1339
I2
tp959
a(I1354
I1
tp960
a(I1365
I2
tp961
a(I1441
I1
tp962
a(I1528
I1
tp963
a(I1653
I1
tp964
a(I1729
I1
tp965
a(I1851
I2
tp966
a(I2092
I1
tp967
a(I2907
I1
tp968
a(I3116
I2
tp969
a(I3116
I3
tp970
a(I3739
I2
tp971
a(I4326
I1
tp972
a(I4528
I3
tp973
a(I4591
I1
tp974
a(I4659
I2
tp975
a(I4680
I1
tp976
a(I4680
I2
tp977
a(I4865
I2
tp978
a(I4943
I2
tp979
aa(lp980
(I48
I2
tp981
a(I52
I2
tp982
a(I145
I1
tp983
a(I498
I2
tp984
a(I733
I2
tp985
a(I873
I1
tp986
a(I1120
I2
tp987
a(I1248
I2
tp988
a(I1729
I2
tp989
a(I1921
I2
tp990
a(I2363
I1
tp991
a(I2373
I4
tp992
a(I2430
I2
tp993
a(I2610
I1
tp994
a(I2614
I1
tp995
a(I2680
I1
tp996
a(I3033
I1
tp997
a(I3348
I2
tp998
a(I3354
I2
tp999
a(I3723
I1
tp1000
a(I3913
I1
tp1001
a(I4074
I2
tp1002
a(I4140
I1
tp1003
a(I4141
I2
tp1004
a(I4258
I1
tp1005
aa(lp1006
a(lp1007
a(lp1008
(I52
I3
tp1009
a(I145
I2
tp1010
a(I273
I1
tp1011
a(I373
I1
tp1012
a(I677
I3
tp1013
a(I733
I3
tp1014
a(I873
I2
tp1015
a(I1248
I3
tp1016
a(I1313
I1
tp1017
a(I1518
I2
tp1018
a(I1654
I1
tp1019
a(I1810
I2
tp1020
a(I1932
I2
tp1021
a(I2363
I2
tp1022
a(I2550
I1
tp1023
a(I2610
I2
tp1024
a(I2614
I2
tp1025
a(I2680
I2
tp1026
a(I3033
I2
tp1027
a(I3113
I1
tp1028
a(I3251
I1
tp1029
a(I3284
I1
tp1030
a(I3449
I1
tp1031
a(I3723
I2
tp1032
a(I3839
I1
tp1033
a(I4068
I1
tp1034
a(I4106
I1
tp1035
a(I4251
I1
tp1036
a(I4596
I1
tp1037
a(I4596
I2
tp1038
a(I4803
I2
tp1039
a(I4837
I1
tp1040
aa(lp1041
(I57
I1
tp1042
a(I64
I3
tp1043
a(I70
I2
tp1044
a(I79
I3
tp1045
a(I348
I1
tp1046
a(I692
I2
tp1047
a(I743
I2
tp1048
a(I777
I3
tp1049
a(I876
I2
tp1050
a(I1331
I1
tp1051
a(I1637
I2
tp1052
a(I1754
I4
tp1053
a(I1783
I1
tp1054
a(I1844
I2
tp1055
a(I1845
I2
tp1056
a(I1963
I1
tp1057
a(I2141
I1
tp1058
a(I2194
I1
tp1059
a(I2213
I2
tp1060
a(I2420
I1
tp1061
a(I2717
I2
tp1062
a(I2805
I1
tp1063
a(I3019
I1
tp1064
a(I3193
I2
tp1065
a(I3789
I1
tp1066
a(I3844
I4
tp1067
a(I4285
I3
tp1068
a(I4331
I1
tp1069
a(I4643
I1
tp1070
a(I4788
I1
tp1071
a(I4838
I2
tp1072
a(I4881
I1
tp1073
a(I5023
I2
tp1074
a(I5035
I3
tp1075
aa(lp1076
(I57
I2
tp1077
a(I146
I2
tp1078
a(I348
I2
tp1079
a(I692
I3
tp1080
a(I743
I3
tp1081
a(I1623
I1
tp1082
a(I1783
I2
tp1083
a(I1845
I3
tp1084
a(I1963
I2
tp1085
a(I2141
I2
tp1086
a(I2548
I1
tp1087
a(I2946
I2
tp1088
a(I3019
I2
tp1089
aa(lp1090
(I57
I3
tp1091
a(I151
I2
tp1092
a(I176
I1
tp1093
a(I405
I2
tp1094
a(I859
I2
tp1095
a(I1334
I1
tp1096
a(I1433
I2
tp1097
a(I1623
I2
tp1098
a(I1677
I1
tp1099
a(I1765
I2
tp1100
aa(lp1101
(I62
I1
tp1102
a(I234
I3
tp1103
a(I365
I2
tp1104
a(I422
I1
tp1105
a(I633
I1
tp1106
a(I855
I2
tp1107
a(I935
I1
tp1108
a(I1028
I3
tp1109
a(I1308
I1
tp1110
a(I1341
I2
tp1111
a(I1437
I3
tp1112
a(I1453
I3
tp1113
a(I1561
I2
tp1114
a(I1586
I2
tp1115
a(I1782
I3
tp1116
a(I1856
I2
tp1117
a(I2132
I2
tp1118
a(I2219
I2
tp1119
a(I2248
I1
tp1120
a(I2567
I3
tp1121
a(I2831
I2
tp1122
a(I3104
I2
tp1123
a(I3144
I3
tp1124
a(I3280
I2
tp1125
a(I3455
I1
tp1126
a(I3476
I2
tp1127
a(I4026
I1
tp1128
a(I4301
I3
tp1129
a(I4380
I4
tp1130
a(I4559
I2
tp1131
a(I4561
I1
tp1132
a(I4713
I4
tp1133
a(I4868
I2
tp1134
a(I4962
I2
tp1135
aa(lp1136
a(lp1137
a(lp1138
a(lp1139
(I67
I2
tp1140
a(I67
I3
tp1141
a(I445
I2
tp1142
a(I445
I3
tp1143
a(I1472
I1
tp1144
a(I1472
I2
tp1145
aa(lp1146
a(lp1147
a(lp1148
a(lp1149
(I72
I1
tp1150
aa(lp1151
(I72
I2
tp1152
a(I922
I2
tp1153
a(I1290
I3
tp1154
a(I1377
I2
tp1155
a(I1746
I2
tp1156
a(I1773
I4
tp1157
a(I1818
I1
tp1158
a(I2155
I2
tp1159
a(I2588
I1
tp1160
a(I2602
I1
tp1161
a(I2624
I1
tp1162
a(I3124
I2
tp1163
a(I3236
I1
tp1164
a(I3239
I1
tp1165
a(I3316
I1
tp1166
a(I3647
I2
tp1167
a(I4085
I2
tp1168
a(I4139
I1
tp1169
a(I4762
I2
tp1170
a(I4887
I1
tp1171
a(I4927
I2
tp1172
aa(lp1173
a(lp1174
a(lp1175
a(lp1176
a(lp1177
a(lp1178
(I80
I2
tp1179
aa(lp1180
(I84
I1
tp1181
aa(lp1182
(I86
I1
tp1183
a(I132
I1
tp1184
a(I188
I1
tp1185
a(I250
I2
tp1186
a(I367
I2
tp1187
a(I367
I3
tp1188
a(I436
I1
tp1189
a(I520
I2
tp1190
a(I622
I2
tp1191
a(I748
I1
tp1192
a(I874
I1
tp1193
a(I874
I2
tp1194
a(I1020
I1
tp1195
a(I1020
I2
tp1196
a(I1020
I3
tp1197
a(I1046
I1
tp1198
a(I1046
I2
tp1199
a(I1069
I1
tp1200
a(I1100
I2
tp1201
a(I1156
I2
tp1202
a(I1163
I1
tp1203
a(I1168
I1
tp1204
a(I1188
I2
tp1205
a(I1269
I2
tp1206
a(I1269
I3
tp1207
a(I1375
I1
tp1208
a(I1387
I3
tp1209
a(I1389
I1
tp1210
a(I1422
I2
tp1211
a(I1425
I2
tp1212
a(I1425
I3
tp1213
a(I1440
I1
tp1214
a(I1440
I2
tp1215
a(I1440
I3
tp1216
a(I1473
I2
tp1217
a(I1558
I1
tp1218
a(I1558
I2
tp1219
a(I1558
I3
tp1220
a(I1558
I4
tp1221
a(I1936
I2
tp1222
a(I2000
I2
tp1223
a(I2124
I2
tp1224
a(I2159
I2
tp1225
a(I2777
I1
tp1226
a(I3048
I1
tp1227
a(I3048
I2
tp1228
a(I3331
I2
tp1229
a(I3331
I3
tp1230
a(I3719
I2
tp1231
a(I3720
I2
tp1232
a(I3720
I3
tp1233
a(I3720
I4
tp1234
a(I3726
I1
tp1235
a(I3726
I2
tp1236
a(I3767
I2
tp1237
a(I3767
I3
tp1238
a(I4059
I1
tp1239
a(I4072
I1
tp1240
a(I4072
I2
tp1241
a(I4078
I1
tp1242
a(I4189
I2
tp1243
a(I4261
I2
tp1244
a(I4261
I3
tp1245
a(I4309
I1
tp1246
a(I4483
I1
tp1247
a(I4492
I1
tp1248
a(I4492
I2
tp1249
a(I4497
I2
tp1250
a(I4497
I3
tp1251
a(I4497
I4
tp1252
a(I4581
I1
tp1253
a(I4635
I3
tp1254
a(I4635
I4
tp1255
a(I4646
I3
tp1256
a(I4741
I1
tp1257
a(I4799
I1
tp1258
a(I4799
I2
tp1259
aa(lp1260
(I86
I2
tp1261
a(I86
I3
tp1262
a(I207
I1
tp1263
a(I216
I1
tp1264
a(I228
I1
tp1265
a(I228
I2
tp1266
a(I228
I3
tp1267
a(I748
I2
tp1268
a(I1156
I3
tp1269
a(I1682
I2
tp1270
a(I1682
I3
tp1271
a(I1702
I1
tp1272
a(I1702
I2
tp1273
a(I1721
I1
tp1274
a(I1721
I2
tp1275
a(I1842
I1
tp1276
a(I1914
I1
tp1277
a(I1968
I1
tp1278
a(I1968
I2
tp1279
a(I1968
I3
tp1280
a(I1988
I1
tp1281
a(I2417
I1
tp1282
a(I2417
I2
tp1283
a(I2417
I3
tp1284
a(I2725
I1
tp1285
a(I2733
I2
tp1286
a(I2733
I3
tp1287
a(I2777
I2
tp1288
a(I2777
I3
tp1289
a(I2792
I1
tp1290
a(I2792
I2
tp1291
a(I3048
I3
tp1292
a(I3048
I4
tp1293
a(I3098
I2
tp1294
a(I3143
I1
tp1295
a(I3143
I2
tp1296
a(I3143
I3
tp1297
a(I3189
I1
tp1298
a(I3189
I2
tp1299
a(I3189
I3
tp1300
a(I3191
I1
tp1301
a(I3447
I1
tp1302
a(I3551
I1
tp1303
a(I3551
I2
tp1304
a(I3570
I2
tp1305
a(I3570
I3
tp1306
a(I3635
I1
tp1307
a(I3835
I1
tp1308
aa(lp1309
a(lp1310
a(lp1311
(I91
I1
tp1312
aa(lp1313
a(lp1314
a(lp1315
a(lp1316
a(lp1317
(I105
I1
tp1318
a(I113
I1
tp1319
a(I136
I2
tp1320
a(I609
I2
tp1321
a(I759
I2
tp1322
a(I885
I1
tp1323
a(I1197
I2
tp1324
a(I1236
I1
tp1325
a(I1451
I2
tp1326
a(I2110
I1
tp1327
a(I2184
I1
tp1328
a(I2615
I2
tp1329
a(I2703
I1
tp1330
a(I2711
I2
tp1331
a(I2712
I2
tp1332
a(I2835
I2
tp1333
a(I2845
I3
tp1334
a(I2848
I2
tp1335
a(I3121
I1
tp1336
a(I3319
I1
tp1337
a(I3363
I1
tp1338
a(I3478
I2
tp1339
a(I3711
I3
tp1340
a(I4147
I1
tp1341
aa(lp1342
(I105
I2
tp1343
a(I113
I2
tp1344
a(I226
I2
tp1345
a(I409
I1
tp1346
a(I862
I2
tp1347
a(I999
I1
tp1348
aa(lp1349
a(lp1350
a(lp1351
a(lp1352
a(lp1353
(I111
I2
tp1354
a(I459
I2
tp1355
a(I844
I1
tp1356
a(I1245
I2
tp1357
a(I1639
I2
tp1358
a(I1688
I2
tp1359
a(I1704
I1
tp1360
a(I1732
I3
tp1361
a(I2458
I1
tp1362
a(I2895
I1
tp1363
aa(lp1364
a(lp1365
a(lp1366
(I114
I1
tp1367
a(I160
I1
tp1368
a(I764
I1
tp1369
a(I1061
I3
tp1370
a(I1369
I2
tp1371
a(I1386
I3
tp1372
a(I1598
I1
tp1373
a(I2055
I1
tp1374
a(I2105
I1
tp1375
a(I2246
I2
tp1376
a(I2543
I2
tp1377
a(I2652
I4
tp1378
a(I3359
I2
tp1379
a(I3981
I2
tp1380
a(I4246
I2
tp1381
a(I4387
I1
tp1382
a(I4460
I1
tp1383
a(I4934
I1
tp1384
aa(lp1385
(I117
I2
tp1386
a(I174
I2
tp1387
a(I235
I2
tp1388
a(I347
I1
tp1389
aa(lp1390
(I118
I2
tp1391
a(I118
I3
tp1392
a(I394
I1
tp1393
a(I575
I1
tp1394
a(I575
I2
tp1395
a(I624
I3
tp1396
a(I752
I1
tp1397
a(I791
I1
tp1398
a(I1102
I2
tp1399
a(I1123
I1
tp1400
a(I1138
I2
tp1401
a(I1181
I1
tp1402
a(I1181
I2
tp1403
a(I1373
I1
tp1404
a(I1438
I2
tp1405
a(I1754
I2
tp1406
a(I1867
I1
tp1407
a(I2234
I1
tp1408
a(I2335
I1
tp1409
a(I2656
I3
tp1410
a(I2918
I1
tp1411
a(I2990
I2
tp1412
a(I2990
I3
tp1413
a(I3378
I1
tp1414
a(I3378
I2
tp1415
a(I3751
I2
tp1416
a(I3751
I3
tp1417
a(I3837
I3
tp1418
a(I3844
I1
tp1419
a(I3844
I2
tp1420
a(I3875
I1
tp1421
a(I4011
I2
tp1422
a(I4070
I2
tp1423
a(I4693
I1
tp1424
a(I4835
I3
tp1425
a(I4978
I1
tp1426
aa(lp1427
a(lp1428
(I120
I1
tp1429
aa(lp1430
a(lp1431
a(lp1432
a(lp1433
a(lp1434
a(lp1435
a(lp1436
a(lp1437
(I140
I1
tp1438
a(I140
I2
tp1439
a(I235
I1
tp1440
a(I326
I1
tp1441
a(I326
I2
tp1442
a(I382
I2
tp1443
a(I382
I3
tp1444
a(I414
I2
tp1445
a(I414
I3
tp1446
a(I448
I3
tp1447
a(I483
I2
tp1448
a(I663
I1
tp1449
a(I796
I2
tp1450
a(I806
I1
tp1451
a(I806
I2
tp1452
a(I891
I1
tp1453
a(I891
I2
tp1454
a(I968
I1
tp1455
a(I1114
I1
tp1456
a(I1127
I2
tp1457
a(I1206
I2
tp1458
a(I1378
I1
tp1459
a(I1381
I2
tp1460
a(I1381
I3
tp1461
a(I1661
I1
tp1462
a(I1661
I2
tp1463
a(I1689
I1
tp1464
a(I2069
I1
tp1465
a(I2304
I2
tp1466
a(I2314
I1
tp1467
a(I2580
I1
tp1468
a(I2731
I1
tp1469
a(I2809
I2
tp1470
a(I2864
I2
tp1471
a(I3016
I1
tp1472
a(I3036
I1
tp1473
a(I3140
I2
tp1474
a(I3328
I2
tp1475
a(I3328
I3
tp1476
a(I3499
I1
tp1477
a(I3499
I2
tp1478
a(I3559
I1
tp1479
a(I3559
I2
tp1480
a(I3794
I2
tp1481
a(I3915
I1
tp1482
a(I4042
I1
tp1483
a(I4080
I2
tp1484
a(I4120
I2
tp1485
a(I4178
I2
tp1486
a(I4225
I1
tp1487
a(I4584
I3
tp1488
a(I4794
I2
tp1489
a(I4841
I1
tp1490
a(I4841
I2
tp1491
a(I4981
I1
tp1492
aa(lp1493
a(lp1494
a(lp1495
(I144
I1
tp1496
a(I361
I1
tp1497
a(I424
I1
tp1498
a(I649
I1
tp1499
a(I996
I1
tp1500
a(I1104
I1
tp1501
a(I1384
I1
tp1502
a(I2515
I1
tp1503
a(I2608
I2
tp1504
a(I3072
I1
tp1505
a(I3135
I1
tp1506
a(I3234
I1
tp1507
a(I3254
I1
tp1508
a(I3290
I1
tp1509
a(I3684
I1
tp1510
a(I4244
I1
tp1511
a(I4277
I1
tp1512
a(I4320
I1
tp1513
a(I4758
I1
tp1514
a(I4802
I1
tp1515
a(I5028
I1
tp1516
aa(lp1517
(I144
I2
tp1518
a(I361
I2
tp1519
a(I424
I2
tp1520
a(I1202
I2
tp1521
aa(lp1522
a(lp1523
a(lp1524
a(lp1525
a(lp1526
(I145
I3
tp1527
a(I368
I2
tp1528
a(I988
I2
tp1529
a(I990
I2
tp1530
a(I1108
I1
tp1531
a(I1313
I2
tp1532
a(I1556
I2
tp1533
a(I1596
I1
tp1534
a(I1624
I1
tp1535
a(I2242
I2
tp1536
a(I2550
I2
tp1537
a(I2610
I3
tp1538
a(I2680
I3
tp1539
a(I3113
I2
tp1540
a(I3251
I2
tp1541
a(I3284
I2
tp1542
a(I3540
I2
tp1543
a(I3728
I2
tp1544
a(I3754
I1
tp1545
a(I4718
I2
tp1546
a(I4939
I2
tp1547
a(I4968
I3
tp1548
aa(lp1549
(I146
I1
tp1550
a(I146
I3
tp1551
a(I151
I3
tp1552
a(I176
I2
tp1553
a(I386
I3
tp1554
a(I405
I3
tp1555
a(I859
I3
tp1556
a(I892
I2
tp1557
a(I918
I3
tp1558
a(I1239
I2
tp1559
a(I1515
I2
tp1560
a(I1623
I3
tp1561
a(I1636
I1
tp1562
a(I1677
I2
tp1563
a(I1765
I3
tp1564
a(I2291
I3
tp1565
a(I2813
I3
tp1566
a(I2922
I3
tp1567
a(I3006
I1
tp1568
a(I3018
I3
tp1569
a(I3196
I3
tp1570
a(I4027
I3
tp1571
a(I4118
I1
tp1572
a(I4118
I3
tp1573
a(I4254
I1
tp1574
a(I4257
I1
tp1575
a(I4454
I3
tp1576
a(I4480
I2
tp1577
a(I4563
I2
tp1578
a(I4563
I3
tp1579
a(I4576
I1
tp1580
a(I4576
I2
tp1581
a(I4623
I1
tp1582
a(I4938
I3
tp1583
a(I4938
I4
tp1584
a(I4956
I1
tp1585
a(I5005
I2
tp1586
aa(lp1587
a(lp1588
a(lp1589
(I150
I1
tp1590
a(I150
I2
tp1591
a(I328
I1
tp1592
a(I698
I1
tp1593
a(I707
I1
tp1594
a(I1061
I1
tp1595
a(I1061
I2
tp1596
a(I1160
I2
tp1597
a(I1369
I1
tp1598
a(I1386
I2
tp1599
a(I1506
I1
tp1600
a(I1687
I1
tp1601
a(I1784
I2
tp1602
a(I1970
I1
tp1603
a(I1979
I2
tp1604
a(I2114
I1
tp1605
a(I2246
I1
tp1606
a(I2305
I2
tp1607
a(I2305
I3
tp1608
a(I2543
I1
tp1609
a(I2652
I2
tp1610
a(I2652
I3
tp1611
a(I2673
I2
tp1612
a(I2774
I2
tp1613
a(I3011
I1
tp1614
a(I3011
I2
tp1615
a(I3259
I2
tp1616
a(I3552
I2
tp1617
a(I3594
I2
tp1618
a(I3906
I2
tp1619
a(I4005
I1
tp1620
a(I4040
I1
tp1621
a(I4098
I2
tp1622
a(I4186
I2
tp1623
a(I4249
I2
tp1624
a(I4249
I3
tp1625
a(I4584
I2
tp1626
a(I4765
I2
tp1627
aa(lp1628
a(lp1629
(I151
I1
tp1630
a(I478
I1
tp1631
a(I888
I1
tp1632
a(I4282
I1
tp1633
aa(lp1634
a(lp1635
a(lp1636
a(lp1637
a(lp1638
a(lp1639
a(lp1640
a(lp1641
(I160
I2
tp1642
a(I262
I2
tp1643
a(I448
I1
tp1644
a(I539
I1
tp1645
a(I764
I2
tp1646
a(I911
I1
tp1647
a(I1093
I1
tp1648
a(I1121
I1
tp1649
a(I1177
I1
tp1650
a(I1553
I1
tp1651
a(I2080
I1
tp1652
a(I2938
I2
tp1653
a(I2995
I1
tp1654
a(I3156
I2
tp1655
a(I3359
I3
tp1656
a(I3823
I2
tp1657
a(I3850
I2
tp1658
a(I4460
I2
tp1659
a(I4634
I2
tp1660
a(I5029
I2
tp1661
aa(lp1662
(I168
I2
tp1663
a(I168
I3
tp1664
a(I456
I2
tp1665
a(I696
I1
tp1666
a(I1468
I2
tp1667
a(I1618
I2
tp1668
a(I1663
I1
tp1669
aa(lp1670
a(lp1671
(I168
I4
tp1672
a(I526
I1
tp1673
a(I674
I1
tp1674
a(I861
I1
tp1675
a(I1468
I3
tp1676
a(I1663
I2
tp1677
a(I2440
I1
tp1678
a(I2478
I1
tp1679
a(I2699
I2
tp1680
a(I2921
I2
tp1681
a(I3246
I2
tp1682
a(I3333
I2
tp1683
a(I3387
I1
tp1684
a(I4720
I1
tp1685
aa(lp1686
(I173
I1
tp1687
a(I390
I1
tp1688
a(I497
I1
tp1689
a(I527
I2
tp1690
a(I1067
I4
tp1691
a(I1154
I3
tp1692
a(I1237
I4
tp1693
a(I1442
I3
tp1694
a(I1828
I2
tp1695
a(I2661
I2
tp1696
a(I2753
I3
tp1697
a(I2841
I3
tp1698
a(I2890
I2
tp1699
a(I3163
I4
tp1700
a(I4181
I1
tp1701
a(I4238
I2
tp1702
a(I4259
I2
tp1703
a(I5047
I1
tp1704
aa(lp1705
a(lp1706
(I174
I3
tp1707
a(I221
I1
tp1708
a(I347
I2
tp1709
a(I1133
I1
tp1710
a(I1204
I1
tp1711
a(I1206
I3
tp1712
a(I1378
I2
tp1713
a(I1407
I2
tp1714
a(I1514
I1
tp1715
a(I1539
I1
tp1716
a(I1769
I1
tp1717
a(I2140
I2
tp1718
a(I2869
I1
tp1719
a(I3016
I2
tp1720
a(I3140
I3
tp1721
a(I3485
I1
tp1722
a(I3559
I3
tp1723
a(I3695
I1
tp1724
aa(lp1725
(I174
I4
tp1726
a(I221
I2
tp1727
a(I454
I2
tp1728
aa(lp1729
a(lp1730
a(lp1731
(I178
I1
tp1732
a(I178
I2
tp1733
a(I185
I1
tp1734
aa(lp1735
a(lp1736
a(lp1737
(I179
I1
tp1738
a(I750
I2
tp1739
a(I1000
I1
tp1740
a(I1707
I2
tp1741
a(I1766
I1
tp1742
a(I2516
I1
tp1743
a(I2547
I3
tp1744
a(I2550
I4
tp1745
a(I2697
I1
tp1746
a(I2793
I2
tp1747
a(I2994
I2
tp1748
a(I2997
I1
tp1749
a(I3053
I1
tp1750
a(I3591
I3
tp1751
a(I3698
I3
tp1752
a(I3754
I3
tp1753
a(I4125
I1
tp1754
a(I4151
I2
tp1755
a(I4353
I3
tp1756
a(I4395
I1
tp1757
a(I4499
I2
tp1758
a(I4524
I3
tp1759
a(I4718
I4
tp1760
a(I4939
I4
tp1761
aa(lp1762
(I179
I2
tp1763
a(I197
I2
tp1764
a(I415
I2
tp1765
a(I948
I2
tp1766
a(I1000
I2
tp1767
a(I1656
I2
tp1768
a(I2516
I2
tp1769
a(I2697
I2
tp1770
a(I3053
I2
tp1771
a(I3591
I4
tp1772
a(I3698
I4
tp1773
a(I4125
I2
tp1774
aa(lp1775
a(lp1776
a(lp1777
(I189
I1
tp1778
a(I859
I1
tp1779
a(I892
I1
tp1780
aa(lp1781
(I193
I1
tp1782
a(I480
I1
tp1783
a(I928
I1
tp1784
a(I965
I1
tp1785
a(I1039
I1
tp1786
a(I1160
I1
tp1787
a(I1584
I1
tp1788
a(I1784
I1
tp1789
a(I2774
I1
tp1790
a(I3061
I1
tp1791
a(I3445
I1
tp1792
a(I3552
I1
tp1793
a(I3594
I1
tp1794
a(I3626
I1
tp1795
a(I3906
I1
tp1796
a(I4098
I1
tp1797
a(I4186
I1
tp1798
a(I4203
I1
tp1799
a(I4280
I1
tp1800
a(I4654
I1
tp1801
aa(lp1802
a(lp1803
(I203
I1
tp1804
a(I750
I1
tp1805
a(I988
I3
tp1806
a(I990
I3
tp1807
a(I1313
I3
tp1808
a(I1528
I2
tp1809
a(I1596
I2
tp1810
a(I1707
I1
tp1811
a(I1715
I2
tp1812
a(I2231
I2
tp1813
a(I2547
I2
tp1814
a(I2550
I3
tp1815
a(I2793
I1
tp1816
a(I2994
I1
tp1817
a(I3113
I3
tp1818
a(I3591
I2
tp1819
a(I3698
I2
tp1820
a(I3754
I2
tp1821
a(I4151
I1
tp1822
a(I4353
I2
tp1823
a(I4499
I1
tp1824
a(I4524
I2
tp1825
a(I4641
I2
tp1826
a(I4718
I3
tp1827
a(I4939
I3
tp1828
aa(lp1829
a(lp1830
a(lp1831
a(lp1832
a(lp1833
a(lp1834
a(lp1835
a(lp1836
(I219
I1
tp1837
a(I503
I1
tp1838
a(I532
I1
tp1839
a(I985
I4
tp1840
a(I1018
I1
tp1841
a(I1340
I1
tp1842
a(I2519
I2
tp1843
a(I2542
I3
tp1844
a(I2942
I2
tp1845
a(I3077
I3
tp1846
a(I3081
I3
tp1847
a(I3250
I2
tp1848
a(I4451
I2
tp1849
a(I4956
I2
tp1850
a(I5005
I3
tp1851
aa(lp1852
a(lp1853
a(lp1854
(I221
I3
tp1855
a(I341
I2
tp1856
a(I614
I2
tp1857
a(I983
I3
tp1858
a(I1471
I2
tp1859
a(I1539
I3
tp1860
a(I1631
I2
tp1861
a(I1769
I3
tp1862
a(I1854
I3
tp1863
a(I2140
I4
tp1864
a(I2341
I2
tp1865
a(I2475
I2
tp1866
a(I2808
I2
tp1867
a(I2873
I2
tp1868
a(I3140
I5
tp1869
a(I3312
I2
tp1870
a(I3485
I3
tp1871
a(I3774
I2
tp1872
a(I3810
I2
tp1873
a(I4197
I1
tp1874
a(I4712
I2
tp1875
a(I5013
I3
tp1876
aa(lp1877
(I223
I1
tp1878
a(I510
I3
tp1879
a(I604
I2
tp1880
a(I798
I3
tp1881
a(I865
I1
tp1882
a(I1059
I1
tp1883
a(I1119
I2
tp1884
a(I1723
I2
tp1885
a(I2089
I3
tp1886
a(I2225
I2
tp1887
a(I2445
I2
tp1888
a(I2539
I2
tp1889
a(I2833
I2
tp1890
a(I3529
I2
tp1891
a(I3592
I2
tp1892
a(I3650
I2
tp1893
a(I3912
I2
tp1894
aa(lp1895
a(lp1896
a(lp1897
a(lp1898
a(lp1899
a(lp1900
a(lp1901
a(lp1902
a(lp1903
(I231
I1
tp1904
a(I357
I4
tp1905
a(I537
I1
tp1906
a(I537
I3
tp1907
a(I654
I2
tp1908
a(I782
I2
tp1909
a(I1254
I3
tp1910
a(I1271
I4
tp1911
a(I1281
I3
tp1912
a(I1287
I3
tp1913
a(I1454
I2
tp1914
a(I1469
I4
tp1915
a(I1995
I2
tp1916
a(I1995
I3
tp1917
a(I2139
I1
tp1918
a(I2552
I3
tp1919
a(I2620
I1
tp1920
a(I2683
I1
tp1921
a(I2699
I1
tp1922
a(I2839
I2
tp1923
a(I2839
I3
tp1924
a(I3037
I2
tp1925
a(I3066
I1
tp1926
a(I3233
I2
tp1927
a(I3246
I1
tp1928
a(I3282
I1
tp1929
a(I3692
I1
tp1930
a(I3692
I3
tp1931
a(I3881
I1
tp1932
a(I4159
I1
tp1933
a(I4489
I2
tp1934
a(I4549
I1
tp1935
a(I4668
I2
tp1936
a(I4744
I3
tp1937
a(I4797
I1
tp1938
a(I4918
I1
tp1939
a(I5006
I1
tp1940
aa(lp1941
a(lp1942
a(lp1943
a(lp1944
a(lp1945
a(lp1946
a(lp1947
a(lp1948
a(lp1949
a(lp1950
a(lp1951
a(lp1952
a(lp1953
a(lp1954
a(lp1955
a(lp1956
a(lp1957
(I248
I3
tp1958
a(I455
I2
tp1959
a(I913
I2
tp1960
a(I2279
I2
tp1961
a(I2544
I1
tp1962
a(I2856
I2
tp1963
a(I2905
I2
tp1964
a(I3998
I3
tp1965
a(I4326
I2
tp1966
a(I4865
I3
tp1967
aa(lp1968
(I248
I4
tp1969
a(I280
I4
tp1970
a(I455
I3
tp1971
a(I709
I2
tp1972
a(I913
I3
tp1973
a(I941
I2
tp1974
a(I1730
I1
tp1975
a(I1788
I2
tp1976
a(I2279
I3
tp1977
a(I2544
I2
tp1978
a(I2786
I2
tp1979
a(I2856
I3
tp1980
a(I3212
I1
tp1981
a(I3933
I2
tp1982
a(I3934
I2
tp1983
a(I3985
I1
tp1984
a(I3998
I4
tp1985
a(I4326
I3
tp1986
a(I4329
I2
tp1987
a(I4494
I2
tp1988
a(I4597
I1
tp1989
a(I4850
I2
tp1990
a(I4865
I4
tp1991
aa(lp1992
a(lp1993
a(lp1994
a(lp1995
a(lp1996
a(lp1997
a(lp1998
a(lp1999
a(lp2000
a(lp2001
a(lp2002
a(lp2003
a(lp2004
a(lp2005
a(lp2006
a(lp2007
(I288
I2
tp2008
a(I997
I1
tp2009
a(I1091
I1
tp2010
a(I1214
I3
tp2011
a(I1530
I3
tp2012
a(I1644
I2
tp2013
a(I1732
I2
tp2014
a(I1804
I2
tp2015
a(I2011
I2
tp2016
a(I2081
I1
tp2017
a(I2114
I3
tp2018
a(I2487
I2
tp2019
a(I2524
I1
tp2020
a(I2763
I3
tp2021
a(I2783
I1
tp2022
a(I2915
I1
tp2023
a(I2934
I1
tp2024
a(I2944
I2
tp2025
a(I2981
I1
tp2026
a(I3123
I2
tp2027
a(I4259
I4
tp2028
a(I4402
I2
tp2029
a(I4436
I2
tp2030
a(I4971
I2
tp2031
aa(lp2032
a(lp2033
a(lp2034
a(lp2035
a(lp2036
(I316
I2
tp2037
a(I614
I1
tp2038
a(I983
I2
tp2039
a(I1133
I2
tp2040
a(I1204
I2
tp2041
a(I1206
I4
tp2042
a(I1282
I1
tp2043
a(I1407
I3
tp2044
a(I1539
I2
tp2045
a(I1631
I1
tp2046
a(I1769
I2
tp2047
a(I1854
I2
tp2048
a(I1943
I1
tp2049
a(I2140
I3
tp2050
a(I2339
I2
tp2051
a(I2413
I1
tp2052
a(I2475
I1
tp2053
a(I2587
I2
tp2054
a(I2808
I1
tp2055
a(I2869
I2
tp2056
a(I2873
I1
tp2057
a(I3140
I4
tp2058
a(I3485
I2
tp2059
a(I4715
I2
tp2060
a(I5013
I2
tp2061
aa(lp2062
(I318
I1
tp2063
aa(lp2064
a(lp2065
a(lp2066
(I323
I3
tp2067
a(I426
I3
tp2068
a(I489
I1
tp2069
a(I848
I1
tp2070
a(I948
I4
tp2071
a(I1370
I1
tp2072
a(I1441
I2
tp2073
a(I1463
I2
tp2074
a(I2049
I1
tp2075
a(I2119
I1
tp2076
a(I2230
I1
tp2077
a(I2359
I1
tp2078
a(I2376
I1
tp2079
a(I2501
I1
tp2080
a(I2642
I2
tp2081
a(I2785
I1
tp2082
a(I3477
I1
tp2083
a(I4370
I3
tp2084
a(I4401
I2
tp2085
a(I4446
I2
tp2086
a(I4448
I2
tp2087
a(I4626
I2
tp2088
a(I4656
I2
tp2089
a(I4716
I1
tp2090
a(I4763
I1
tp2091
aa(lp2092
a(lp2093
a(lp2094
a(lp2095
a(lp2096
a(lp2097
a(lp2098
a(lp2099
(I335
I1
tp2100
aa(lp2101
(I335
I2
tp2102
a(I614
I4
tp2103
a(I2327
I2
tp2104
a(I3897
I2
tp2105
a(I4216
I2
tp2106
a(I4607
I1
tp2107
aa(lp2108
a(lp2109
a(lp2110
a(lp2111
(I341
I3
tp2112
a(I391
I1
tp2113
a(I614
I3
tp2114
a(I1631
I3
tp2115
aa(lp2116
(I342
I1
tp2117
a(I1005
I2
tp2118
a(I1106
I2
tp2119
a(I1151
I2
tp2120
a(I1194
I1
tp2121
a(I1504
I1
tp2122
a(I1612
I3
tp2123
a(I1670
I2
tp2124
a(I2048
I1
tp2125
a(I3139
I2
tp2126
a(I3475
I1
tp2127
a(I4108
I2
tp2128
a(I4652
I2
tp2129
a(I5019
I2
tp2130
aa(lp2131
a(lp2132
a(lp2133
a(lp2134
a(lp2135
a(lp2136
a(lp2137
a(lp2138
a(lp2139
a(lp2140
a(lp2141
(I362
I1
tp2142
a(I489
I2
tp2143
a(I739
I1
tp2144
a(I741
I2
tp2145
a(I848
I2
tp2146
a(I948
I5
tp2147
a(I1441
I3
tp2148
a(I1463
I3
tp2149
a(I1619
I2
tp2150
a(I1740
I1
tp2151
a(I1864
I1
tp2152
a(I2119
I2
tp2153
a(I2146
I1
tp2154
a(I2230
I2
tp2155
a(I2376
I2
tp2156
a(I2501
I2
tp2157
a(I2642
I3
tp2158
a(I2688
I1
tp2159
a(I3064
I1
tp2160
a(I3477
I2
tp2161
a(I4626
I3
tp2162
a(I4716
I2
tp2163
a(I4763
I2
tp2164
aa(lp2165
(I362
I2
tp2166
a(I1619
I3
tp2167
a(I1803
I2
tp2168
a(I1883
I2
tp2169
a(I2146
I2
tp2170
a(I2376
I3
tp2171
a(I3064
I2
tp2172
a(I3412
I2
tp2173
a(I3684
I2
tp2174
aa(lp2175
a(lp2176
a(lp2177
a(lp2178
(I366
I2
tp2179
a(I2188
I2
tp2180
aa(lp2181
a(lp2182
a(lp2183
a(lp2184
a(lp2185
a(lp2186
a(lp2187
a(lp2188
(I380
I1
tp2189
a(I380
I2
tp2190
a(I1115
I1
tp2191
aa(lp2192
a(lp2193
a(lp2194
a(lp2195
(I386
I2
tp2196
a(I500
I1
tp2197
a(I918
I2
tp2198
aa(lp2199
a(lp2200
a(lp2201
a(lp2202
a(lp2203
a(lp2204
a(lp2205
a(lp2206
a(lp2207
a(lp2208
a(lp2209
(I402
I1
tp2210
aa(lp2211
(I402
I2
tp2212
aa(lp2213
a(lp2214
a(lp2215
a(lp2216
a(lp2217
a(lp2218
a(lp2219
a(lp2220
a(lp2221
a(lp2222
a(lp2223
a(lp2224
a(lp2225
a(lp2226
a(lp2227
a(lp2228
a(lp2229
a(lp2230
a(lp2231
a(lp2232
a(lp2233
a(lp2234
a(lp2235
a(lp2236
(I439
I1
tp2237
a(I1191
I2
tp2238
a(I1617
I2
tp2239
a(I2171
I1
tp2240
a(I3007
I2
tp2241
a(I3073
I1
tp2242
a(I3231
I1
tp2243
a(I4429
I1
tp2244
a(I4751
I2
tp2245
aa(lp2246
(I439
I2
tp2247
a(I1191
I3
tp2248
a(I1494
I2
tp2249
a(I1617
I3
tp2250
a(I2171
I2
tp2251
a(I2334
I2
tp2252
a(I3007
I3
tp2253
a(I3073
I2
tp2254
a(I3231
I2
tp2255
a(I4429
I2
tp2256
a(I4751
I3
tp2257
aa(lp2258
a(lp2259
a(lp2260
(I445
I4
tp2261
a(I2321
I2
tp2262
a(I2482
I2
tp2263
a(I4100
I2
tp2264
aa(lp2265
a(lp2266
(I448
I2
tp2267
a(I483
I1
tp2268
a(I560
I1
tp2269
a(I1093
I2
tp2270
a(I1121
I2
tp2271
a(I1177
I2
tp2272
a(I2326
I1
tp2273
a(I2796
I1
tp2274
a(I2938
I3
tp2275
a(I2959
I1
tp2276
a(I3328
I1
tp2277
a(I3794
I1
tp2278
a(I3823
I3
tp2279
a(I4196
I1
tp2280
aa(lp2281
a(lp2282
a(lp2283
a(lp2284
(I455
I1
tp2285
aa(lp2286
a(lp2287
a(lp2288
a(lp2289
a(lp2290
a(lp2291
(I459
I3
tp2292
a(I670
I2
tp2293
a(I933
I1
tp2294
a(I946
I1
tp2295
a(I1751
I1
tp2296
a(I1848
I1
tp2297
a(I2300
I1
tp2298
a(I2373
I1
tp2299
a(I2458
I2
tp2300
a(I2895
I2
tp2301
a(I2934
I3
tp2302
a(I3366
I1
tp2303
a(I3469
I1
tp2304
a(I4009
I2
tp2305
a(I4298
I2
tp2306
a(I4300
I1
tp2307
aa(lp2308
a(lp2309
a(lp2310
a(lp2311
a(lp2312
a(lp2313
a(lp2314
a(lp2315
a(lp2316
a(lp2317
a(lp2318
a(lp2319
a(lp2320
a(lp2321
a(lp2322
a(lp2323
a(lp2324
a(lp2325
a(lp2326
(I510
I2
tp2327
a(I540
I1
tp2328
a(I552
I1
tp2329
a(I604
I1
tp2330
a(I798
I2
tp2331
a(I940
I1
tp2332
a(I992
I1
tp2333
a(I1119
I1
tp2334
a(I1563
I3
tp2335
a(I1590
I1
tp2336
a(I1723
I1
tp2337
a(I2089
I2
tp2338
a(I2225
I1
tp2339
a(I2283
I1
tp2340
a(I2445
I1
tp2341
a(I2754
I1
tp2342
a(I2768
I1
tp2343
a(I2855
I1
tp2344
a(I3139
I4
tp2345
a(I3353
I2
tp2346
a(I3475
I3
tp2347
a(I3529
I1
tp2348
a(I3650
I1
tp2349
a(I3947
I3
tp2350
a(I4636
I2
tp2351
a(I4950
I2
tp2352
aa(lp2353
a(lp2354
a(lp2355
a(lp2356
a(lp2357
a(lp2358
a(lp2359
a(lp2360
a(lp2361
a(lp2362
a(lp2363
a(lp2364
a(lp2365
a(lp2366
a(lp2367
a(lp2368
a(lp2369
a(lp2370
a(lp2371
a(lp2372
a(lp2373
a(lp2374
(I558
I1
tp2375
aa(lp2376
(I558
I2
tp2377
aa(lp2378
a(lp2379
a(lp2380
(I564
I1
tp2381
a(I600
I2
tp2382
a(I706
I2
tp2383
a(I904
I1
tp2384
a(I978
I3
tp2385
a(I1030
I1
tp2386
a(I1581
I4
tp2387
a(I1625
I3
tp2388
a(I2532
I3
tp2389
a(I2649
I3
tp2390
a(I2657
I2
tp2391
a(I2737
I2
tp2392
a(I2837
I2
tp2393
a(I2983
I2
tp2394
a(I3105
I1
tp2395
a(I3882
I2
tp2396
a(I3986
I1
tp2397
a(I4333
I1
tp2398
a(I4816
I1
tp2399
aa(lp2400
(I565
I2
tp2401
a(I669
I1
tp2402
a(I922
I3
tp2403
a(I1537
I1
tp2404
a(I1543
I2
tp2405
a(I1627
I1
tp2406
a(I1818
I2
tp2407
a(I2155
I3
tp2408
a(I2588
I2
tp2409
a(I2849
I2
tp2410
a(I3124
I3
tp2411
a(I3239
I2
tp2412
a(I3316
I2
tp2413
a(I4190
I1
tp2414
a(I4574
I1
tp2415
a(I4762
I3
tp2416
aa(lp2417
(I565
I3
tp2418
a(I810
I1
tp2419
a(I971
I1
tp2420
a(I1193
I2
tp2421
a(I1537
I2
tp2422
a(I1537
I3
tp2423
a(I1612
I1
tp2424
a(I1612
I2
tp2425
a(I1627
I2
tp2426
a(I1627
I3
tp2427
a(I1670
I1
tp2428
a(I1758
I2
tp2429
a(I2233
I1
tp2430
a(I2432
I2
tp2431
a(I2588
I3
tp2432
a(I2588
I4
tp2433
a(I2634
I1
tp2434
a(I2801
I1
tp2435
a(I2849
I3
tp2436
a(I4025
I1
tp2437
a(I4025
I2
tp2438
a(I4030
I1
tp2439
a(I4030
I2
tp2440
a(I4032
I1
tp2441
a(I4108
I1
tp2442
a(I4206
I2
tp2443
a(I4574
I2
tp2444
a(I4652
I1
tp2445
a(I4689
I2
tp2446
a(I5019
I1
tp2447
aa(lp2448
a(lp2449
a(lp2450
a(lp2451
(I581
I1
tp2452
a(I738
I1
tp2453
a(I1132
I1
tp2454
a(I1471
I3
tp2455
a(I1524
I2
tp2456
a(I1722
I1
tp2457
a(I2199
I2
tp2458
a(I2341
I3
tp2459
a(I2475
I3
tp2460
a(I2808
I3
tp2461
a(I2886
I1
tp2462
a(I2923
I1
tp2463
a(I3312
I3
tp2464
a(I3485
I4
tp2465
a(I3774
I3
tp2466
a(I3897
I1
tp2467
a(I3950
I1
tp2468
a(I4197
I2
tp2469
a(I4373
I1
tp2470
a(I4523
I2
tp2471
a(I4712
I3
tp2472
aa(lp2473
a(lp2474
a(lp2475
(I588
I1
tp2476
aa(lp2477
(I600
I1
tp2478
a(I978
I2
tp2479
a(I1581
I3
tp2480
a(I1625
I2
tp2481
a(I2253
I2
tp2482
a(I2277
I1
tp2483
a(I2440
I3
tp2484
a(I2532
I2
tp2485
a(I2640
I2
tp2486
a(I2649
I2
tp2487
a(I2657
I1
tp2488
a(I2737
I1
tp2489
a(I2837
I1
tp2490
a(I2983
I1
tp2491
a(I3005
I1
tp2492
a(I3298
I2
tp2493
a(I3795
I1
tp2494
a(I3962
I1
tp2495
a(I4434
I1
tp2496
a(I4828
I1
tp2497
a(I5041
I1
tp2498
aa(lp2499
a(lp2500
a(lp2501
a(lp2502
(I609
I1
tp2503
aa(lp2504
a(lp2505
a(lp2506
a(lp2507
a(lp2508
a(lp2509
a(lp2510
a(lp2511
a(lp2512
a(lp2513
a(lp2514
a(lp2515
a(lp2516
a(lp2517
a(lp2518
a(lp2519
a(lp2520
a(lp2521
(I633
I2
tp2522
a(I855
I3
tp2523
a(I1394
I1
tp2524
a(I1445
I1
tp2525
a(I1561
I3
tp2526
a(I2132
I3
tp2527
a(I2310
I1
tp2528
a(I2608
I1
tp2529
a(I2974
I1
tp2530
a(I4561
I2
tp2531
a(I4769
I2
tp2532
aa(lp2533
a(lp2534
(I640
I1
tp2535
a(I640
I2
tp2536
a(I1191
I4
tp2537
a(I1617
I4
tp2538
a(I2003
I1
tp2539
a(I2003
I2
tp2540
a(I2171
I3
tp2541
a(I2171
I4
tp2542
a(I2334
I3
tp2543
a(I2707
I1
tp2544
a(I2707
I2
tp2545
a(I2707
I3
tp2546
a(I2936
I2
tp2547
a(I2936
I3
tp2548
a(I2985
I1
tp2549
a(I3192
I2
tp2550
a(I4020
I1
tp2551
a(I4020
I2
tp2552
a(I4082
I2
tp2553
a(I4429
I3
tp2554
a(I4752
I1
tp2555
a(I4823
I1
tp2556
a(I4823
I2
tp2557
a(I4901
I1
tp2558
aa(lp2559
a(lp2560
a(lp2561
a(lp2562
a(lp2563
a(lp2564
a(lp2565
a(lp2566
a(lp2567
a(lp2568
a(lp2569
a(lp2570
(I655
I3
tp2571
a(I2256
I3
tp2572
a(I2257
I3
tp2573
a(I2525
I3
tp2574
a(I2536
I3
tp2575
a(I3147
I4
tp2576
a(I3620
I4
tp2577
a(I3662
I2
tp2578
a(I4014
I4
tp2579
a(I4557
I4
tp2580
aa(lp2581
a(lp2582
a(lp2583
a(lp2584
a(lp2585
(I670
I1
tp2586
aa(lp2587
a(lp2588
a(lp2589
a(lp2590
a(lp2591
a(lp2592
a(lp2593
a(lp2594
a(lp2595
a(lp2596
a(lp2597
a(lp2598
a(lp2599
a(lp2600
a(lp2601
a(lp2602
a(lp2603
a(lp2604
a(lp2605
a(lp2606
a(lp2607
(I707
I2
tp2608
a(I907
I1
tp2609
a(I932
I2
tp2610
a(I1604
I2
tp2611
a(I2870
I1
tp2612
a(I3613
I2
tp2613
aa(lp2614
a(lp2615
a(lp2616
a(lp2617
a(lp2618
a(lp2619
a(lp2620
a(lp2621
a(lp2622
a(lp2623
a(lp2624
a(lp2625
a(lp2626
a(lp2627
a(lp2628
a(lp2629
a(lp2630
a(lp2631
a(lp2632
a(lp2633
a(lp2634
a(lp2635
a(lp2636
a(lp2637
a(lp2638
a(lp2639
a(lp2640
a(lp2641
a(lp2642
a(lp2643
a(lp2644
a(lp2645
a(lp2646
a(lp2647
a(lp2648
a(lp2649
a(lp2650
a(lp2651
a(lp2652
a(lp2653
a(lp2654
a(lp2655
a(lp2656
a(lp2657
a(lp2658
a(lp2659
a(lp2660
a(lp2661
(I824
I2
tp2662
aa(lp2663
a(lp2664
a(lp2665
a(lp2666
a(lp2667
a(lp2668
a(lp2669
a(lp2670
a(lp2671
a(lp2672
a(lp2673
a(lp2674
a(lp2675
a(lp2676
a(lp2677
a(lp2678
a(lp2679
a(lp2680
a(lp2681
(I861
I2
tp2682
a(I907
I4
tp2683
a(I978
I1
tp2684
a(I1581
I2
tp2685
a(I1593
I1
tp2686
a(I1625
I1
tp2687
a(I2178
I1
tp2688
a(I2253
I1
tp2689
a(I2440
I2
tp2690
a(I2640
I1
tp2691
a(I2698
I4
tp2692
a(I2699
I3
tp2693
a(I2921
I3
tp2694
a(I2975
I2
tp2695
a(I3387
I2
tp2696
a(I4720
I2
tp2697
aa(lp2698
(I862
I1
tp2699
a(I1834
I1
tp2700
a(I3599
I2
tp2701
a(I3599
I4
tp2702
a(I3835
I2
tp2703
a(I3962
I2
tp2704
a(I4049
I1
tp2705
a(I4072
I3
tp2706
a(I4235
I1
tp2707
a(I4235
I3
tp2708
a(I4386
I1
tp2709
a(I4915
I2
tp2710
a(I5041
I2
tp2711
aa(lp2712
a(lp2713
a(lp2714
a(lp2715
a(lp2716
a(lp2717
a(lp2718
a(lp2719
(I872
I1
tp2720
aa(lp2721
a(lp2722
a(lp2723
a(lp2724
a(lp2725
a(lp2726
a(lp2727
a(lp2728
a(lp2729
a(lp2730
a(lp2731
a(lp2732
a(lp2733
a(lp2734
a(lp2735
a(lp2736
a(lp2737
a(lp2738
a(lp2739
a(lp2740
a(lp2741
a(lp2742
a(lp2743
a(lp2744
(I909
I1
tp2745
a(I1005
I1
tp2746
a(I1264
I1
tp2747
aa(lp2748
a(lp2749
a(lp2750
a(lp2751
a(lp2752
a(lp2753
a(lp2754
a(lp2755
a(lp2756
a(lp2757
a(lp2758
a(lp2759
a(lp2760
a(lp2761
a(lp2762
a(lp2763
a(lp2764
a(lp2765
a(lp2766
a(lp2767
a(lp2768
a(lp2769
a(lp2770
a(lp2771
a(lp2772
a(lp2773
a(lp2774
a(lp2775
(I962
I1
tp2776
aa(lp2777
a(lp2778
a(lp2779
a(lp2780
a(lp2781
a(lp2782
a(lp2783
a(lp2784
a(lp2785
(I979
I1
tp2786
aa(lp2787
a(lp2788
a(lp2789
(I985
I2
tp2790
a(I985
I3
tp2791
a(I1042
I1
tp2792
a(I1103
I1
tp2793
a(I1550
I2
tp2794
a(I1636
I2
tp2795
a(I1786
I1
tp2796
a(I1786
I2
tp2797
a(I1786
I3
tp2798
a(I1786
I4
tp2799
a(I1847
I1
tp2800
a(I1847
I2
tp2801
a(I1852
I2
tp2802
a(I1963
I3
tp2803
a(I2209
I1
tp2804
a(I2291
I1
tp2805
a(I2291
I2
tp2806
a(I2353
I1
tp2807
a(I2504
I2
tp2808
a(I2505
I1
tp2809
a(I2505
I2
tp2810
a(I2542
I2
tp2811
a(I2606
I2
tp2812
a(I2606
I3
tp2813
a(I2668
I1
tp2814
a(I2813
I1
tp2815
a(I2813
I2
tp2816
a(I2922
I2
tp2817
a(I2922
I4
tp2818
a(I3018
I1
tp2819
a(I3018
I2
tp2820
a(I3031
I1
tp2821
a(I3071
I1
tp2822
a(I3077
I1
tp2823
a(I3077
I2
tp2824
a(I3081
I1
tp2825
a(I3081
I2
tp2826
a(I3160
I1
tp2827
a(I3160
I2
tp2828
a(I3196
I2
tp2829
a(I3250
I1
tp2830
a(I3446
I1
tp2831
a(I4000
I2
tp2832
a(I4027
I2
tp2833
a(I4065
I1
tp2834
a(I4065
I2
tp2835
a(I4118
I2
tp2836
a(I4222
I1
tp2837
a(I4282
I2
tp2838
a(I4285
I4
tp2839
a(I4331
I2
tp2840
a(I4451
I1
tp2841
a(I4454
I2
tp2842
a(I4480
I3
tp2843
a(I4480
I4
tp2844
a(I4525
I1
tp2845
a(I4788
I2
tp2846
a(I4838
I3
tp2847
a(I4938
I2
tp2848
a(I5023
I3
tp2849
aa(lp2850
a(lp2851
a(lp2852
a(lp2853
a(lp2854
a(lp2855
a(lp2856
a(lp2857
a(lp2858
a(lp2859
a(lp2860
a(lp2861
a(lp2862
(I997
I2
tp2863
a(I1091
I2
tp2864
a(I2524
I2
tp2865
a(I2934
I2
tp2866
a(I2944
I3
tp2867
a(I2959
I2
tp2868
a(I4009
I1
tp2869
a(I4298
I1
tp2870
aa(lp2871
a(lp2872
(I999
I2
tp2873
a(I1232
I2
tp2874
a(I1232
I3
tp2875
a(I1256
I2
tp2876
a(I1290
I1
tp2877
a(I1290
I2
tp2878
a(I1377
I1
tp2879
a(I1387
I1
tp2880
a(I1387
I2
tp2881
a(I1422
I1
tp2882
a(I1425
I1
tp2883
a(I1451
I1
tp2884
a(I1482
I2
tp2885
a(I1545
I1
tp2886
a(I1566
I3
tp2887
a(I1746
I1
tp2888
a(I1773
I3
tp2889
a(I1919
I2
tp2890
a(I2064
I2
tp2891
a(I2159
I1
tp2892
a(I2184
I3
tp2893
a(I2237
I1
tp2894
a(I2237
I2
tp2895
a(I2237
I3
tp2896
a(I2272
I1
tp2897
a(I2272
I2
tp2898
a(I2464
I2
tp2899
a(I2467
I2
tp2900
a(I2518
I2
tp2901
a(I2518
I3
tp2902
a(I2585
I1
tp2903
a(I2586
I2
tp2904
a(I2615
I1
tp2905
a(I2615
I3
tp2906
a(I2639
I2
tp2907
a(I2655
I1
tp2908
a(I2711
I1
tp2909
a(I2748
I2
tp2910
a(I2750
I2
tp2911
a(I2835
I3
tp2912
a(I2845
I2
tp2913
a(I2848
I3
tp2914
a(I2868
I2
tp2915
a(I2930
I1
tp2916
a(I3005
I2
tp2917
a(I3125
I2
tp2918
a(I3275
I1
tp2919
a(I3340
I2
tp2920
a(I3393
I2
tp2921
a(I3400
I1
tp2922
a(I3404
I1
tp2923
a(I3424
I1
tp2924
a(I3471
I1
tp2925
a(I3573
I4
tp2926
a(I3599
I3
tp2927
a(I3644
I1
tp2928
a(I3644
I2
tp2929
a(I3644
I3
tp2930
a(I3647
I1
tp2931
a(I3711
I1
tp2932
a(I3711
I2
tp2933
a(I3822
I1
tp2934
a(I3885
I3
tp2935
a(I3891
I2
tp2936
a(I3929
I2
tp2937
a(I4049
I2
tp2938
a(I4085
I1
tp2939
a(I4114
I1
tp2940
a(I4147
I2
tp2941
a(I4209
I3
tp2942
a(I4211
I1
tp2943
a(I4235
I2
tp2944
a(I4269
I1
tp2945
a(I4269
I2
tp2946
a(I4269
I3
tp2947
a(I4311
I1
tp2948
a(I4311
I2
tp2949
a(I4345
I2
tp2950
a(I4345
I3
tp2951
a(I4345
I4
tp2952
a(I4345
I5
tp2953
a(I4560
I1
tp2954
a(I4635
I2
tp2955
a(I4646
I2
tp2956
a(I4646
I4
tp2957
a(I4701
I1
tp2958
a(I4701
I2
tp2959
a(I4764
I1
tp2960
a(I4836
I2
tp2961
a(I5041
I3
tp2962
a(I5048
I1
tp2963
aa(lp2964
a(lp2965
a(lp2966
a(lp2967
a(lp2968
a(lp2969
a(lp2970
a(lp2971
a(lp2972
a(lp2973
a(lp2974
a(lp2975
a(lp2976
a(lp2977
(I1023
I2
tp2978
a(I3601
I1
tp2979
aa(lp2980
a(lp2981
a(lp2982
a(lp2983
a(lp2984
a(lp2985
a(lp2986
a(lp2987
a(lp2988
a(lp2989
a(lp2990
a(lp2991
a(lp2992
a(lp2993
a(lp2994
a(lp2995
a(lp2996
a(lp2997
a(lp2998
a(lp2999
a(lp3000
a(lp3001
a(lp3002
a(lp3003
a(lp3004
a(lp3005
a(lp3006
a(lp3007
a(lp3008
a(lp3009
a(lp3010
a(lp3011
a(lp3012
a(lp3013
a(lp3014
a(lp3015
a(lp3016
a(lp3017
a(lp3018
a(lp3019
a(lp3020
a(lp3021
a(lp3022
a(lp3023
a(lp3024
a(lp3025
a(lp3026
a(lp3027
a(lp3028
a(lp3029
a(lp3030
a(lp3031
a(lp3032
a(lp3033
a(lp3034
a(lp3035
a(lp3036
a(lp3037
a(lp3038
a(lp3039
a(lp3040
a(lp3041
a(lp3042
a(lp3043
a(lp3044
a(lp3045
a(lp3046
a(lp3047
a(lp3048
a(lp3049
a(lp3050
a(lp3051
a(lp3052
a(lp3053
a(lp3054
a(lp3055
a(lp3056
a(lp3057
a(lp3058
a(lp3059
a(lp3060
a(lp3061
a(lp3062
a(lp3063
a(lp3064
a(lp3065
a(lp3066
(I1196
I1
tp3067
aa(lp3068
a(lp3069
a(lp3070
a(lp3071
a(lp3072
a(lp3073
a(lp3074
a(lp3075
a(lp3076
a(lp3077
a(lp3078
a(lp3079
a(lp3080
a(lp3081
a(lp3082
a(lp3083
a(lp3084
a(lp3085
a(lp3086
a(lp3087
a(lp3088
a(lp3089
a(lp3090
a(lp3091
a(lp3092
a(lp3093
a(lp3094
a(lp3095
a(lp3096
a(lp3097
a(lp3098
a(lp3099
a(lp3100
a(lp3101
a(lp3102
a(lp3103
a(lp3104
a(lp3105
a(lp3106
a(lp3107
a(lp3108
a(lp3109
a(lp3110
a(lp3111
a(lp3112
a(lp3113
a(lp3114
a(lp3115
a(lp3116
a(lp3117
a(lp3118
a(lp3119
a(lp3120
a(lp3121
a(lp3122
a(lp3123
a(lp3124
a(lp3125
a(lp3126
a(lp3127
a(lp3128
a(lp3129
a(lp3130
a(lp3131
a(lp3132
a(lp3133
a(lp3134
(I1313
I4
tp3135
a(I1528
I3
tp3136
a(I1693
I2
tp3137
aa(lp3138
a(lp3139
a(lp3140
a(lp3141
a(lp3142
a(lp3143
a(lp3144
a(lp3145
a(lp3146
a(lp3147
a(lp3148
a(lp3149
a(lp3150
a(lp3151
a(lp3152
a(lp3153
a(lp3154
a(lp3155
a(lp3156
a(lp3157
a(lp3158
a(lp3159
a(lp3160
a(lp3161
a(lp3162
a(lp3163
a(lp3164
a(lp3165
a(lp3166
a(lp3167
a(lp3168
a(lp3169
a(lp3170
a(lp3171
a(lp3172
a(lp3173
a(lp3174
a(lp3175
a(lp3176
a(lp3177
a(lp3178
a(lp3179
a(lp3180
a(lp3181
a(lp3182
a(lp3183
a(lp3184
a(lp3185
a(lp3186
a(lp3187
a(lp3188
a(lp3189
a(lp3190
a(lp3191
a(lp3192
a(lp3193
a(lp3194
a(lp3195
a(lp3196
a(lp3197
a(lp3198
a(lp3199
a(lp3200
a(lp3201
a(lp3202
a(lp3203
a(lp3204
a(lp3205
a(lp3206
a(lp3207
a(lp3208
a(lp3209
a(lp3210
a(lp3211
a(lp3212
a(lp3213
(I1464
I1
tp3214
a(I2202
I1
tp3215
a(I2294
I3
tp3216
a(I4012
I1
tp3217
aa(lp3218
(I1464
I2
tp3219
a(I4012
I2
tp3220
a(I4525
I2
tp3221
a(I4563
I4
tp3222
aa(lp3223
a(lp3224
a(lp3225
a(lp3226
a(lp3227
a(lp3228
a(lp3229
a(lp3230
a(lp3231
a(lp3232
a(lp3233
a(lp3234
a(lp3235
a(lp3236
a(lp3237
a(lp3238
(I1480
I1
tp3239
aa(lp3240
a(lp3241
a(lp3242
a(lp3243
a(lp3244
a(lp3245
a(lp3246
(I1513
I2
tp3247
aa(lp3248
a(lp3249
a(lp3250
a(lp3251
a(lp3252
a(lp3253
a(lp3254
a(lp3255
a(lp3256
a(lp3257
a(lp3258
a(lp3259
a(lp3260
a(lp3261
a(lp3262
a(lp3263
a(lp3264
a(lp3265
a(lp3266
a(lp3267
a(lp3268
a(lp3269
a(lp3270
a(lp3271
a(lp3272
a(lp3273
a(lp3274
a(lp3275
a(lp3276
a(lp3277
a(lp3278
a(lp3279
a(lp3280
a(lp3281
a(lp3282
a(lp3283
a(lp3284
a(lp3285
a(lp3286
a(lp3287
a(lp3288
a(lp3289
a(lp3290
a(lp3291
a(lp3292
a(lp3293
a(lp3294
(I1568
I2
tp3295
aa(lp3296
a(lp3297
a(lp3298
a(lp3299
a(lp3300
a(lp3301
a(lp3302
a(lp3303
a(lp3304
a(lp3305
a(lp3306
a(lp3307
a(lp3308
a(lp3309
a(lp3310
a(lp3311
a(lp3312
a(lp3313
a(lp3314
a(lp3315
a(lp3316
a(lp3317
a(lp3318
a(lp3319
a(lp3320
a(lp3321
a(lp3322
a(lp3323
a(lp3324
a(lp3325
a(lp3326
a(lp3327
a(lp3328
a(lp3329
a(lp3330
a(lp3331
a(lp3332
a(lp3333
a(lp3334
a(lp3335
a(lp3336
a(lp3337
a(lp3338
a(lp3339
a(lp3340
a(lp3341
a(lp3342
a(lp3343
a(lp3344
a(lp3345
a(lp3346
a(lp3347
a(lp3348
a(lp3349
a(lp3350
a(lp3351
a(lp3352
a(lp3353
a(lp3354
a(lp3355
a(lp3356
a(lp3357
a(lp3358
a(lp3359
a(lp3360
a(lp3361
a(lp3362
a(lp3363
a(lp3364
a(lp3365
a(lp3366
a(lp3367
a(lp3368
a(lp3369
a(lp3370
a(lp3371
a(lp3372
a(lp3373
a(lp3374
a(lp3375
a(lp3376
a(lp3377
a(lp3378
a(lp3379
a(lp3380
a(lp3381
a(lp3382
a(lp3383
a(lp3384
a(lp3385
a(lp3386
a(lp3387
a(lp3388
a(lp3389
a(lp3390
a(lp3391
a(lp3392
a(lp3393
a(lp3394
a(lp3395
a(lp3396
a(lp3397
a(lp3398
a(lp3399
a(lp3400
a(lp3401
(I1733
I3
tp3402
aa(lp3403
a(lp3404
a(lp3405
a(lp3406
a(lp3407
a(lp3408
a(lp3409
a(lp3410
a(lp3411
a(lp3412
a(lp3413
a(lp3414
a(lp3415
a(lp3416
a(lp3417
a(lp3418
a(lp3419
a(lp3420
a(lp3421
a(lp3422
a(lp3423
a(lp3424
a(lp3425
a(lp3426
a(lp3427
a(lp3428
a(lp3429
a(lp3430
a(lp3431
a(lp3432
a(lp3433
a(lp3434
a(lp3435
a(lp3436
a(lp3437
a(lp3438
a(lp3439
a(lp3440
a(lp3441
a(lp3442
a(lp3443
a(lp3444
a(lp3445
a(lp3446
a(lp3447
a(lp3448
a(lp3449
a(lp3450
a(lp3451
a(lp3452
a(lp3453
a(lp3454
a(lp3455
a(lp3456
a(lp3457
a(lp3458
a(lp3459
a(lp3460
a(lp3461
a(lp3462
a(lp3463
a(lp3464
a(lp3465
a(lp3466
a(lp3467
a(lp3468
(I1859
I1
tp3469
aa(lp3470
a(lp3471
a(lp3472
a(lp3473
a(lp3474
a(lp3475
a(lp3476
a(lp3477
a(lp3478
a(lp3479
a(lp3480
a(lp3481
a(lp3482
a(lp3483
(I1933
I1
tp3484
a(I1933
I2
tp3485
aa(lp3486
a(lp3487
a(lp3488
a(lp3489
a(lp3490
a(lp3491
a(lp3492
a(lp3493
a(lp3494
a(lp3495
a(lp3496
a(lp3497
a(lp3498
a(lp3499
a(lp3500
a(lp3501
a(lp3502
a(lp3503
a(lp3504
a(lp3505
(I1996
I2
tp3506
aa(lp3507
(I1996
I3
tp3508
aa(lp3509
a(lp3510
a(lp3511
a(lp3512
a(lp3513
a(lp3514
a(lp3515
a(lp3516
a(lp3517
a(lp3518
a(lp3519
a(lp3520
a(lp3521
a(lp3522
a(lp3523
a(lp3524
a(lp3525
a(lp3526
a(lp3527
a(lp3528
a(lp3529
a(lp3530
a(lp3531
a(lp3532
a(lp3533
a(lp3534
a(lp3535
a(lp3536
a(lp3537
a(lp3538
a(lp3539
a(lp3540
a(lp3541
a(lp3542
a(lp3543
a(lp3544
a(lp3545
a(lp3546
a(lp3547
a(lp3548
a(lp3549
a(lp3550
a(lp3551
a(lp3552
a(lp3553
a(lp3554
a(lp3555
a(lp3556
a(lp3557
a(lp3558
(I2137
I2
tp3559
aa(lp3560
a(lp3561
a(lp3562
a(lp3563
a(lp3564
a(lp3565
a(lp3566
a(lp3567
a(lp3568
a(lp3569
a(lp3570
a(lp3571
a(lp3572
a(lp3573
a(lp3574
a(lp3575
a(lp3576
a(lp3577
a(lp3578
a(lp3579
a(lp3580
a(lp3581
a(lp3582
a(lp3583
a(lp3584
a(lp3585
a(lp3586
a(lp3587
a(lp3588
a(lp3589
a(lp3590
(I2187
I1
tp3591
aa(lp3592
a(lp3593
(I2188
I3
tp3594
aa(lp3595
a(lp3596
a(lp3597
a(lp3598
a(lp3599
a(lp3600
a(lp3601
a(lp3602
a(lp3603
a(lp3604
a(lp3605
a(lp3606
a(lp3607
a(lp3608
a(lp3609
a(lp3610
a(lp3611
a(lp3612
a(lp3613
a(lp3614
a(lp3615
a(lp3616
a(lp3617
a(lp3618
a(lp3619
a(lp3620
a(lp3621
a(lp3622
a(lp3623
a(lp3624
a(lp3625
a(lp3626
a(lp3627
a(lp3628
a(lp3629
(I2257
I2
tp3630
a(I3007
I1
tp3631
a(I4751
I1
tp3632
aa(lp3633
a(lp3634
(I2257
I4
tp3635
a(I2536
I4
tp3636
a(I4557
I5
tp3637
aa(lp3638
(I2257
I5
tp3639
aa(lp3640
a(lp3641
a(lp3642
a(lp3643
a(lp3644
a(lp3645
a(lp3646
a(lp3647
a(lp3648
a(lp3649
a(lp3650
a(lp3651
a(lp3652
(I2292
I1
tp3653
a(I2292
I2
tp3654
a(I2407
I1
tp3655
a(I2495
I1
tp3656
a(I2495
I2
tp3657
a(I2495
I3
tp3658
a(I2495
I4
tp3659
a(I2591
I2
tp3660
aa(lp3661
a(lp3662
a(lp3663
a(lp3664
a(lp3665
a(lp3666
a(lp3667
a(lp3668
a(lp3669
a(lp3670
a(lp3671
a(lp3672
a(lp3673
a(lp3674
a(lp3675
a(lp3676
a(lp3677
a(lp3678
a(lp3679
a(lp3680
a(lp3681
a(lp3682
a(lp3683
a(lp3684
a(lp3685
a(lp3686
a(lp3687
a(lp3688
a(lp3689
a(lp3690
a(lp3691
a(lp3692
a(lp3693
a(lp3694
a(lp3695
a(lp3696
a(lp3697
a(lp3698
a(lp3699
a(lp3700
a(lp3701
a(lp3702
a(lp3703
a(lp3704
a(lp3705
a(lp3706
a(lp3707
a(lp3708
a(lp3709
a(lp3710
a(lp3711
a(lp3712
a(lp3713
a(lp3714
a(lp3715
a(lp3716
a(lp3717
a(lp3718
a(lp3719
a(lp3720
a(lp3721
a(lp3722
a(lp3723
a(lp3724
a(lp3725
(I2472
I1
tp3726
aa(lp3727
a(lp3728
a(lp3729
a(lp3730
a(lp3731
a(lp3732
a(lp3733
a(lp3734
a(lp3735
a(lp3736
a(lp3737
a(lp3738
a(lp3739
a(lp3740
a(lp3741
a(lp3742
a(lp3743
a(lp3744
a(lp3745
a(lp3746
a(lp3747
a(lp3748
(I2517
I1
tp3749
aa(lp3750
a(lp3751
a(lp3752
a(lp3753
a(lp3754
a(lp3755
a(lp3756
a(lp3757
a(lp3758
a(lp3759
a(lp3760
a(lp3761
a(lp3762
a(lp3763
a(lp3764
a(lp3765
a(lp3766
a(lp3767
a(lp3768
a(lp3769
a(lp3770
a(lp3771
a(lp3772
a(lp3773
a(lp3774
a(lp3775
a(lp3776
a(lp3777
a(lp3778
a(lp3779
a(lp3780
a(lp3781
a(lp3782
a(lp3783
a(lp3784
a(lp3785
a(lp3786
a(lp3787
a(lp3788
a(lp3789
a(lp3790
a(lp3791
a(lp3792
a(lp3793
a(lp3794
a(lp3795
a(lp3796
a(lp3797
a(lp3798
a(lp3799
a(lp3800
a(lp3801
a(lp3802
a(lp3803
a(lp3804
a(lp3805
a(lp3806
a(lp3807
a(lp3808
a(lp3809
a(lp3810
a(lp3811
a(lp3812
a(lp3813
a(lp3814
a(lp3815
a(lp3816
(I2632
I1
tp3817
aa(lp3818
a(lp3819
a(lp3820
a(lp3821
a(lp3822
a(lp3823
a(lp3824
a(lp3825
a(lp3826
a(lp3827
a(lp3828
a(lp3829
a(lp3830
a(lp3831
a(lp3832
a(lp3833
a(lp3834
a(lp3835
a(lp3836
a(lp3837
a(lp3838
a(lp3839
a(lp3840
a(lp3841
a(lp3842
a(lp3843
a(lp3844
a(lp3845
a(lp3846
a(lp3847
a(lp3848
a(lp3849
a(lp3850
a(lp3851
a(lp3852
a(lp3853
a(lp3854
a(lp3855
a(lp3856
a(lp3857
a(lp3858
a(lp3859
a(lp3860
a(lp3861
a(lp3862
a(lp3863
a(lp3864
a(lp3865
a(lp3866
a(lp3867
a(lp3868
a(lp3869
a(lp3870
a(lp3871
a(lp3872
a(lp3873
a(lp3874
a(lp3875
a(lp3876
a(lp3877
a(lp3878
a(lp3879
a(lp3880
a(lp3881
a(lp3882
a(lp3883
a(lp3884
a(lp3885
a(lp3886
a(lp3887
a(lp3888
a(lp3889
a(lp3890
a(lp3891
a(lp3892
a(lp3893
a(lp3894
a(lp3895
a(lp3896
a(lp3897
a(lp3898
(I2790
I1
tp3899
aa(lp3900
(I2790
I2
tp3901
aa(lp3902
a(lp3903
a(lp3904
a(lp3905
a(lp3906
a(lp3907
a(lp3908
a(lp3909
a(lp3910
a(lp3911
a(lp3912
a(lp3913
a(lp3914
a(lp3915
a(lp3916
a(lp3917
a(lp3918
a(lp3919
a(lp3920
a(lp3921
a(lp3922
a(lp3923
a(lp3924
a(lp3925
a(lp3926
a(lp3927
a(lp3928
a(lp3929
a(lp3930
a(lp3931
a(lp3932
a(lp3933
a(lp3934
a(lp3935
a(lp3936
a(lp3937
a(lp3938
a(lp3939
a(lp3940
a(lp3941
a(lp3942
a(lp3943
a(lp3944
a(lp3945
a(lp3946
a(lp3947
a(lp3948
a(lp3949
a(lp3950
a(lp3951
a(lp3952
a(lp3953
a(lp3954
a(lp3955
a(lp3956
a(lp3957
a(lp3958
(I2875
I1
tp3959
aa(lp3960
a(lp3961
a(lp3962
a(lp3963
a(lp3964
a(lp3965
a(lp3966
a(lp3967
(I2894
I1
tp3968
aa(lp3969
a(lp3970
a(lp3971
a(lp3972
a(lp3973
a(lp3974
a(lp3975
a(lp3976
a(lp3977
a(lp3978
a(lp3979
a(lp3980
(I2914
I2
tp3981
aa(lp3982
a(lp3983
a(lp3984
a(lp3985
a(lp3986
a(lp3987
a(lp3988
a(lp3989
a(lp3990
a(lp3991
a(lp3992
a(lp3993
a(lp3994
a(lp3995
a(lp3996
a(lp3997
a(lp3998
a(lp3999
a(lp4000
a(lp4001
a(lp4002
a(lp4003
a(lp4004
a(lp4005
a(lp4006
a(lp4007
a(lp4008
(I2945
I1
tp4009
aa(lp4010
a(lp4011
(I2953
I1
tp4012
aa(lp4013
a(lp4014
a(lp4015
a(lp4016
a(lp4017
a(lp4018
a(lp4019
a(lp4020
a(lp4021
a(lp4022
a(lp4023
a(lp4024
a(lp4025
a(lp4026
a(lp4027
a(lp4028
a(lp4029
a(lp4030
a(lp4031
a(lp4032
a(lp4033
a(lp4034
a(lp4035
a(lp4036
a(lp4037
a(lp4038
(I2999
I1
tp4039
aa(lp4040
a(lp4041
a(lp4042
a(lp4043
a(lp4044
a(lp4045
a(lp4046
a(lp4047
a(lp4048
a(lp4049
a(lp4050
a(lp4051
a(lp4052
a(lp4053
a(lp4054
a(lp4055
a(lp4056
a(lp4057
(I3029
I1
tp4058
aa(lp4059
a(lp4060
a(lp4061
a(lp4062
a(lp4063
a(lp4064
a(lp4065
a(lp4066
a(lp4067
a(lp4068
a(lp4069
a(lp4070
a(lp4071
a(lp4072
a(lp4073
a(lp4074
a(lp4075
a(lp4076
a(lp4077
a(lp4078
a(lp4079
a(lp4080
a(lp4081
a(lp4082
a(lp4083
a(lp4084
a(lp4085
a(lp4086
a(lp4087
a(lp4088
a(lp4089
a(lp4090
a(lp4091
a(lp4092
a(lp4093
a(lp4094
(I3106
I2
tp4095
aa(lp4096
(I3106
I3
tp4097
aa(lp4098
a(lp4099
a(lp4100
a(lp4101
a(lp4102
a(lp4103
a(lp4104
a(lp4105
a(lp4106
a(lp4107
a(lp4108
a(lp4109
a(lp4110
a(lp4111
a(lp4112
a(lp4113
a(lp4114
a(lp4115
a(lp4116
a(lp4117
a(lp4118
a(lp4119
a(lp4120
a(lp4121
a(lp4122
a(lp4123
a(lp4124
a(lp4125
a(lp4126
a(lp4127
a(lp4128
a(lp4129
a(lp4130
a(lp4131
a(lp4132
a(lp4133
a(lp4134
a(lp4135
a(lp4136
a(lp4137
a(lp4138
a(lp4139
a(lp4140
a(lp4141
a(lp4142
a(lp4143
a(lp4144
a(lp4145
a(lp4146
a(lp4147
a(lp4148
a(lp4149
a(lp4150
a(lp4151
a(lp4152
a(lp4153
a(lp4154
a(lp4155
a(lp4156
a(lp4157
a(lp4158
a(lp4159
a(lp4160
a(lp4161
a(lp4162
a(lp4163
a(lp4164
a(lp4165
a(lp4166
a(lp4167
a(lp4168
a(lp4169
a(lp4170
a(lp4171
a(lp4172
a(lp4173
a(lp4174
a(lp4175
a(lp4176
a(lp4177
a(lp4178
a(lp4179
a(lp4180
(I3284
I3
tp4181
aa(lp4182
a(lp4183
a(lp4184
a(lp4185
a(lp4186
a(lp4187
a(lp4188
a(lp4189
a(lp4190
a(lp4191
a(lp4192
a(lp4193
a(lp4194
a(lp4195
a(lp4196
a(lp4197
a(lp4198
a(lp4199
a(lp4200
a(lp4201
a(lp4202
a(lp4203
a(lp4204
a(lp4205
a(lp4206
a(lp4207
a(lp4208
a(lp4209
a(lp4210
a(lp4211
a(lp4212
a(lp4213
a(lp4214
a(lp4215
a(lp4216
(I3369
I2
tp4217
aa(lp4218
a(lp4219
a(lp4220
a(lp4221
(I3384
I1
tp4222
aa(lp4223
(I3384
I2
tp4224
aa(lp4225
(I3384
I3
tp4226
aa(lp4227
a(lp4228
a(lp4229
a(lp4230
a(lp4231
a(lp4232
a(lp4233
a(lp4234
(I3410
I2
tp4235
aa(lp4236
a(lp4237
a(lp4238
a(lp4239
a(lp4240
a(lp4241
a(lp4242
a(lp4243
a(lp4244
a(lp4245
a(lp4246
a(lp4247
a(lp4248
a(lp4249
a(lp4250
a(lp4251
a(lp4252
a(lp4253
a(lp4254
a(lp4255
a(lp4256
a(lp4257
a(lp4258
a(lp4259
a(lp4260
a(lp4261
a(lp4262
a(lp4263
a(lp4264
a(lp4265
a(lp4266
a(lp4267
a(lp4268
a(lp4269
a(lp4270
a(lp4271
a(lp4272
a(lp4273
a(lp4274
a(lp4275
a(lp4276
a(lp4277
a(lp4278
a(lp4279
a(lp4280
a(lp4281
a(lp4282
a(lp4283
a(lp4284
a(lp4285
a(lp4286
a(lp4287
a(lp4288
a(lp4289
a(lp4290
a(lp4291
a(lp4292
a(lp4293
a(lp4294
a(lp4295
a(lp4296
a(lp4297
a(lp4298
a(lp4299
a(lp4300
a(lp4301
a(lp4302
a(lp4303
a(lp4304
a(lp4305
a(lp4306
a(lp4307
a(lp4308
a(lp4309
a(lp4310
a(lp4311
a(lp4312
a(lp4313
a(lp4314
a(lp4315
a(lp4316
a(lp4317
a(lp4318
a(lp4319
a(lp4320
a(lp4321
a(lp4322
a(lp4323
a(lp4324
a(lp4325
a(lp4326
a(lp4327
a(lp4328
a(lp4329
a(lp4330
a(lp4331
a(lp4332
a(lp4333
a(lp4334
a(lp4335
a(lp4336
a(lp4337
a(lp4338
a(lp4339
a(lp4340
a(lp4341
a(lp4342
a(lp4343
a(lp4344
a(lp4345
a(lp4346
a(lp4347
a(lp4348
a(lp4349
a(lp4350
a(lp4351
a(lp4352
a(lp4353
a(lp4354
a(lp4355
a(lp4356
a(lp4357
a(lp4358
a(lp4359
a(lp4360
a(lp4361
a(lp4362
a(lp4363
a(lp4364
a(lp4365
a(lp4366
a(lp4367
a(lp4368
a(lp4369
a(lp4370
a(lp4371
a(lp4372
a(lp4373
a(lp4374
a(lp4375
a(lp4376
a(lp4377
a(lp4378
a(lp4379
a(lp4380
a(lp4381
a(lp4382
a(lp4383
a(lp4384
(I3797
I2
tp4385
aa(lp4386
(I3797
I3
tp4387
aa(lp4388
a(lp4389
a(lp4390
a(lp4391
a(lp4392
a(lp4393
a(lp4394
a(lp4395
a(lp4396
a(lp4397
a(lp4398
a(lp4399
a(lp4400
a(lp4401
a(lp4402
a(lp4403
a(lp4404
a(lp4405
a(lp4406
a(lp4407
a(lp4408
a(lp4409
a(lp4410
a(lp4411
a(lp4412
a(lp4413
a(lp4414
a(lp4415
a(lp4416
a(lp4417
a(lp4418
a(lp4419
a(lp4420
a(lp4421
a(lp4422
a(lp4423
a(lp4424
a(lp4425
a(lp4426
a(lp4427
a(lp4428
a(lp4429
a(lp4430
a(lp4431
a(lp4432
a(lp4433
a(lp4434
a(lp4435
a(lp4436
(I3918
I2
tp4437
aa(lp4438
(I3923
I1
tp4439
aa(lp4440
a(lp4441
a(lp4442
a(lp4443
a(lp4444
a(lp4445
a(lp4446
a(lp4447
a(lp4448
a(lp4449
a(lp4450
a(lp4451
a(lp4452
a(lp4453
a(lp4454
a(lp4455
a(lp4456
a(lp4457
a(lp4458
a(lp4459
a(lp4460
a(lp4461
a(lp4462
a(lp4463
a(lp4464
a(lp4465
a(lp4466
a(lp4467
a(lp4468
a(lp4469
a(lp4470
a(lp4471
a(lp4472
(I4002
I2
tp4473
aa(lp4474
(I4002
I3
tp4475
aa(lp4476
a(lp4477
a(lp4478
a(lp4479
a(lp4480
a(lp4481
a(lp4482
a(lp4483
a(lp4484
a(lp4485
a(lp4486
a(lp4487
a(lp4488
a(lp4489
a(lp4490
a(lp4491
a(lp4492
a(lp4493
a(lp4494
a(lp4495
a(lp4496
a(lp4497
a(lp4498
a(lp4499
a(lp4500
(I4036
I1
tp4501
aa(lp4502
a(lp4503
a(lp4504
a(lp4505
a(lp4506
(I4045
I2
tp4507
aa(lp4508
a(lp4509
a(lp4510
a(lp4511
(I4062
I1
tp4512
aa(lp4513
a(lp4514
a(lp4515
a(lp4516
a(lp4517
a(lp4518
a(lp4519
a(lp4520
a(lp4521
a(lp4522
a(lp4523
a(lp4524
a(lp4525
a(lp4526
a(lp4527
a(lp4528
a(lp4529
a(lp4530
a(lp4531
a(lp4532
a(lp4533
a(lp4534
a(lp4535
a(lp4536
a(lp4537
a(lp4538
a(lp4539
a(lp4540
a(lp4541
a(lp4542
a(lp4543
a(lp4544
a(lp4545
a(lp4546
a(lp4547
(I4135
I1
tp4548
aa(lp4549
a(lp4550
a(lp4551
a(lp4552
a(lp4553
a(lp4554
a(lp4555
(I4149
I2
tp4556
aa(lp4557
a(lp4558
a(lp4559
a(lp4560
a(lp4561
a(lp4562
a(lp4563
a(lp4564
a(lp4565
a(lp4566
a(lp4567
a(lp4568
a(lp4569
a(lp4570
a(lp4571
a(lp4572
a(lp4573
a(lp4574
a(lp4575
a(lp4576
a(lp4577
a(lp4578
a(lp4579
a(lp4580
a(lp4581
(I4208
I2
tp4582
aa(lp4583
a(lp4584
a(lp4585
a(lp4586
a(lp4587
a(lp4588
(I4218
I2
tp4589
aa(lp4590
a(lp4591
a(lp4592
a(lp4593
a(lp4594
a(lp4595
a(lp4596
a(lp4597
a(lp4598
a(lp4599
a(lp4600
a(lp4601
a(lp4602
a(lp4603
a(lp4604
a(lp4605
a(lp4606
a(lp4607
a(lp4608
a(lp4609
a(lp4610
a(lp4611
a(lp4612
a(lp4613
a(lp4614
a(lp4615
(I4276
I1
tp4616
aa(lp4617
(I4276
I2
tp4618
aa(lp4619
a(lp4620
a(lp4621
a(lp4622
a(lp4623
a(lp4624
a(lp4625
a(lp4626
a(lp4627
a(lp4628
a(lp4629
a(lp4630
a(lp4631
a(lp4632
a(lp4633
a(lp4634
a(lp4635
a(lp4636
a(lp4637
a(lp4638
a(lp4639
a(lp4640
a(lp4641
a(lp4642
a(lp4643
(I4324
I1
tp4644
aa(lp4645
a(lp4646
a(lp4647
a(lp4648
a(lp4649
a(lp4650
a(lp4651
a(lp4652
a(lp4653
a(lp4654
a(lp4655
a(lp4656
a(lp4657
a(lp4658
a(lp4659
a(lp4660
a(lp4661
a(lp4662
a(lp4663
a(lp4664
a(lp4665
a(lp4666
a(lp4667
a(lp4668
a(lp4669
a(lp4670
a(lp4671
a(lp4672
a(lp4673
a(lp4674
a(lp4675
a(lp4676
a(lp4677
a(lp4678
a(lp4679
a(lp4680
a(lp4681
a(lp4682
a(lp4683
a(lp4684
a(lp4685
a(lp4686
a(lp4687
a(lp4688
a(lp4689
a(lp4690
a(lp4691
(I4437
I2
tp4692
aa(lp4693
a(lp4694
a(lp4695
a(lp4696
a(lp4697
a(lp4698
a(lp4699
a(lp4700
a(lp4701
a(lp4702
a(lp4703
a(lp4704
a(lp4705
a(lp4706
a(lp4707
a(lp4708
a(lp4709
a(lp4710
(I4481
I1
tp4711
aa(lp4712
a(lp4713
a(lp4714
a(lp4715
a(lp4716
a(lp4717
a(lp4718
a(lp4719
a(lp4720
a(lp4721
a(lp4722
a(lp4723
(I4504
I1
tp4724
aa(lp4725
(I4504
I2
tp4726
aa(lp4727
a(lp4728
a(lp4729
(I4523
I3
tp4730
aa(lp4731
a(lp4732
a(lp4733
a(lp4734
a(lp4735
a(lp4736
a(lp4737
a(lp4738
(I4544
I1
tp4739
aa(lp4740
a(lp4741
a(lp4742
a(lp4743
a(lp4744
a(lp4745
a(lp4746
a(lp4747
a(lp4748
a(lp4749
a(lp4750
a(lp4751
a(lp4752
a(lp4753
a(lp4754
a(lp4755
a(lp4756
a(lp4757
a(lp4758
a(lp4759
a(lp4760
a(lp4761
a(lp4762
a(lp4763
a(lp4764
a(lp4765
a(lp4766
a(lp4767
a(lp4768
a(lp4769
a(lp4770
a(lp4771
(I4595
I1
tp4772
aa(lp4773
a(lp4774
a(lp4775
a(lp4776
a(lp4777
a(lp4778
a(lp4779
a(lp4780
a(lp4781
a(lp4782
a(lp4783
a(lp4784
a(lp4785
a(lp4786
a(lp4787
a(lp4788
a(lp4789
a(lp4790
a(lp4791
a(lp4792
a(lp4793
a(lp4794
a(lp4795
a(lp4796
a(lp4797
a(lp4798
a(lp4799
a(lp4800
a(lp4801
a(lp4802
a(lp4803
a(lp4804
a(lp4805
a(lp4806
a(lp4807
a(lp4808
a(lp4809
a(lp4810
a(lp4811
a(lp4812
a(lp4813
a(lp4814
a(lp4815
a(lp4816
a(lp4817
a(lp4818
a(lp4819
a(lp4820
a(lp4821
a(lp4822
a(lp4823
a(lp4824
a(lp4825
a(lp4826
a(lp4827
a(lp4828
a(lp4829
a(lp4830
a(lp4831
a(lp4832
a(lp4833
a(lp4834
a(lp4835
a(lp4836
a(lp4837
a(lp4838
a(lp4839
a(lp4840
a(lp4841
a(lp4842
a(lp4843
a(lp4844
a(lp4845
a(lp4846
a(lp4847
a(lp4848
a(lp4849
a(lp4850
a(lp4851
a(lp4852
a(lp4853
a(lp4854
a(lp4855
a(lp4856
a(lp4857
a(lp4858
a(lp4859
a(lp4860
a(lp4861
a(lp4862
a(lp4863
a(lp4864
a(lp4865
a(lp4866
a(lp4867
a(lp4868
a(lp4869
a(lp4870
a(lp4871
a(lp4872
a(lp4873
a(lp4874
a(lp4875
a(lp4876
a(lp4877
a(lp4878
a(lp4879
a(lp4880
a(lp4881
(I4840
I1
tp4882
aa(lp4883
a(lp4884
a(lp4885
a(lp4886
a(lp4887
a(lp4888
a(lp4889
a(lp4890
a(lp4891
a(lp4892
a(lp4893
a(lp4894
a(lp4895
a(lp4896
a(lp4897
a(lp4898
a(lp4899
a(lp4900
a(lp4901
a(lp4902
a(lp4903
a(lp4904
a(lp4905
a(lp4906
a(lp4907
a(lp4908
a(lp4909
a(lp4910
a(lp4911
a(lp4912
a(lp4913
a(lp4914
a(lp4915
a(lp4916
a(lp4917
a(lp4918
a(lp4919
a(lp4920
a(lp4921
a(lp4922
a(lp4923
a(lp4924
a(lp4925
a(lp4926
a(lp4927
a(lp4928
a(lp4929
a(lp4930
a(lp4931
a(lp4932
a(lp4933
(I4983
I1
tp4934
aa(lp4935
a(lp4936
a(lp4937
a(lp4938
a(lp4939
a(lp4940
a(lp4941
a(lp4942
a(lp4943
a(lp4944
a(lp4945
a(lp4946
a(lp4947
a(lp4948
a(lp4949
a(lp4950
a(lp4951
a(lp4952
a(lp4953
a(lp4954
a(lp4955
a(lp4956
a(lp4957
a(lp4958
(I5045
I1
tp4959
aa(lp4960
a(lp4961
a(lp4962
a.