(lp0
I86
aI87
aI67
aI68
aI-1
aI87
aI-1
aI-1
aI49
aI-1
aI40
aI-1
aI-1
aI37
aI23
aI-1
aI-1
aI-1
aI35
aI36
aI24
aI-1
aI-1
aI91
aI-1
aI-1
aI92
aI74
aI87
aI88
aI-1
aI65
aI34
aI72
aI-1
aI89
aI90
aI61
aI-1
aI-1
aI-1
aI-1
aI-1
aI-1
aI-1
aI55
aI9
aI10
aI85
aI-1
aI-1
aI-1
aI11
aI12
aI66
aI53
aI-1
aI-1
aI-1
aI42
aI-1
aI-1
aI37
aI38
aI-1
aI83
aI-1
aI-1
aI-1
aI-1
aI8
aI51
aI-1
aI-1
aI-1
aI-1
aI-1
aI65
aI-1
aI-1
aI8
aI7
aI93
aI-1
aI-1
aI-1
aI-1
aI30
aI-1
aI-1
aI-1
aI45
aI-1
aI-1
aI6
aI-1
aI38
aI21
aI-1
aI-1
aI-1
aI-1
aI-1
aI53
aI-1
aI15
aI88
aI35
aI-1
aI-1
aI54
aI-1
aI-1
aI-1
aI21
aI92
aI49
aI-1
aI59
aI39
aI-1
aI24
aI14
aI-1
aI47
aI48
aI92
aI-1
aI91
aI71
aI5
aI43
aI-1
aI-1
aI32
aI-1
aI-1
aI94
aI47
aI48
aI49
aI-1
aI70
aI-1
aI74
aI-1
aI-1
aI-1
aI-1
aI31
aI58
aI-1
aI-1
aI95
aI-1
aI-1
aI-1
aI26
aI20
aI23
aI66
aI-1
aI60
aI-1
aI3
aI-1
aI-1
aI-1
aI81
aI82
aI6
aI9
aI-1
aI89
aI-1
aI-1
aI-1
aI16
aI64
aI-1
aI71
aI-1
aI-1
aI-1
aI84
aI73
aI-1
aI-1
aI-1
aI52
aI-1
aI-1
aI50
aI51
aI-1
aI51
aI-1
aI52
aI73
aI-1
aI-1
aI-1
aI-1
aI-1
aI74
aI-1
aI-1
aI4
aI-1
aI-1
aI-1
aI-1
aI-1
aI57
aI31
aI-1
aI-1
aI55
aI-1
aI-1
aI13
aI-1
aI-1
aI76
aI-1
aI-1
aI-1
aI-1
aI-1
aI57
aI58
aI-1
aI82
aI-1
aI77
aI-1
aI-1
aI-1
aI-1
aI32
aI-1
aI-1
aI76
aI-1
aI-1
aI-1
aI-1
aI40
aI-1
aI-1
aI20
aI28
aI-1
aI-1
aI28
aI-1
aI-1
aI-1
aI-1
aI22
aI90
aI-1
aI-1
aI63
aI93
aI-1
aI-1
aI-1
aI75
aI-1
aI92
aI93
aI-1
aI-1
aI-1
aI-1
aI54
aI44
aI-1
aI-1
aI82
aI80
aI-1
aI-1
aI86
aI-1
aI-1
aI-1
aI-1
aI74
aI85
aI45
aI46
aI-1
aI72
aI84
aI-1
aI-1
aI-1
aI-1
aI-1
aI-1
aI33
aI91
aI-1
aI-1
aI22
aI32
aI88
aI89
aI57
aI-1
aI-1
aI-1
aI-1
aI-1
aI62
aI-1
aI81
aI-1
aI27
aI-1
aI-1
aI-1
aI75
aI-1
aI-1
aI-1
aI-1
aI-1
aI59
aI2
aI3
aI83
aI-1
aI25
aI-1
aI56
aI-1
aI-1
aI59
aI-1
aI18
aI19
aI-1
aI68
aI-1
aI-1
aI-1
aI-1
aI54
aI55
aI-1
aI-1
aI70
aI75
aI-1
aI17
aI-1
aI91
aI-1
aI-1
aI-1
aI-1
aI40
aI-1
aI94
aI-1
aI50
aI33
aI-1
aI95
aI-1
aI26
aI-1
aI36
aI-1
aI74
aI75
aI85
aI78
aI79
aI-1
aI69
aI-1
aI-1
aI67
aI68
aI-1
aI-1
aI-1
aI7
aI-1
aI-1
aI84
aI4
aI5
aI57
aI-1
aI-1
aI-1
aI22
aI-1
aI-1
aI-1
aI-1
aI-1
aI22
aI-1
aI-1
aI-1
aI60
aI-1
aI-1
aI-1
aI29
aI0
aI1
aI-1
aI-1
aI-1
aI-1
aI-1
aI-1
aI-1
aI70
aI63
aI64
aI-1
aI-1
aI-1
aI-1
aI89
aI-1
aI41
aI-1
aI6
aI90
aI-1
aI-1
aI-1
aI-1
aI-1
aI79
aI-1
aI-1
aI-1
aI44
aI90
aI-1
aI-1
aI-1
aI77
aI-1
aI-1
aI-1
aI-1
aI-1
aI-1
aI-1
aI-1
aI-1
aI-1
aI-1
aI-1
aI2
aI-1
aI-1
aI-1
aI60
aI-1
aI-1
aI-1
aI43
aI42
aI-1
aI-1
aI-1
aI-1
aI-1
aI-1
aI-1
aI39
aI36
aI-1
aI-1
aI-1
aI-1
aI-1
aI-1
aI-1
aI-1
aI-1
aI78
aI50
aI-1
aI-1
aI-1
aI-1
aI-1
aI37
aI-1
aI39
aI-1
aI27
aI-1
aI-1
aI-1
aI96
aI97
aI-1
aI-1
aI-1
a.