(lp0
I93
aI94
aI74
aI75
aI-1
aI94
aI-1
aI-1
aI56
aI-1
aI47
aI-1
aI-1
aI44
aI23
aI-1
aI-1
aI-1
aI42
aI43
aI24
aI-1
aI-1
aI98
aI-1
aI-1
aI99
aI81
aI94
aI95
aI-1
aI72
aI34
aI79
aI-1
aI96
aI97
aI68
aI40
aI25
aI-1
aI-1
aI-1
aI-1
aI-1
aI62
aI9
aI-1
aI92
aI-1
aI-1
aI-1
aI-1
aI-1
aI73
aI60
aI36
aI-1
aI-1
aI49
aI-1
aI-1
aI44
aI45
aI17
aI90
aI-1
aI-1
aI-1
aI-1
aI8
aI58
aI-1
aI-1
aI-1
aI-1
aI-1
aI72
aI-1
aI-1
aI8
aI7
aI100
aI41
aI-1
aI-1
aI-1
aI30
aI-1
aI-1
aI35
aI52
aI-1
aI-1
aI6
aI7
aI45
aI21
aI-1
aI-1
aI-1
aI-1
aI-1
aI60
aI-1
aI-1
aI95
aI42
aI-1
aI-1
aI61
aI-1
aI-1
aI-1
aI21
aI99
aI56
aI-1
aI66
aI46
aI-1
aI-1
aI14
aI15
aI54
aI55
aI99
aI-1
aI98
aI78
aI5
aI50
aI-1
aI-1
aI32
aI37
aI38
aI101
aI54
aI55
aI56
aI25
aI77
aI-1
aI81
aI-1
aI-1
aI29
aI-1
aI31
aI65
aI-1
aI-1
aI102
aI28
aI-1
aI39
aI-1
aI20
aI23
aI73
aI36
aI67
aI-1
aI3
aI-1
aI-1
aI-1
aI88
aI89
aI-1
aI9
aI-1
aI96
aI-1
aI-1
aI-1
aI16
aI71
aI-1
aI78
aI-1
aI-1
aI-1
aI91
aI80
aI-1
aI24
aI-1
aI59
aI-1
aI-1
aI57
aI58
aI-1
aI58
aI-1
aI59
aI80
aI-1
aI-1
aI-1
aI26
aI27
aI81
aI-1
aI-1
aI-1
aI-1
aI-1
aI-1
aI-1
aI-1
aI64
aI31
aI-1
aI-1
aI62
aI-1
aI12
aI13
aI-1
aI27
aI83
aI-1
aI-1
aI-1
aI-1
aI-1
aI64
aI65
aI37
aI89
aI-1
aI84
aI-1
aI-1
aI-1
aI-1
aI32
aI-1
aI-1
aI83
aI-1
aI-1
aI-1
aI-1
aI47
aI-1
aI-1
aI20
aI-1
aI-1
aI-1
aI-1
aI-1
aI-1
aI-1
aI-1
aI22
aI97
aI-1
aI-1
aI70
aI100
aI-1
aI-1
aI-1
aI82
aI-1
aI99
aI100
aI-1
aI-1
aI-1
aI-1
aI61
aI51
aI-1
aI-1
aI89
aI87
aI-1
aI-1
aI93
aI-1
aI37
aI-1
aI-1
aI81
aI92
aI52
aI53
aI-1
aI79
aI91
aI-1
aI-1
aI-1
aI-1
aI-1
aI-1
aI33
aI98
aI-1
aI-1
aI22
aI32
aI95
aI96
aI64
aI-1
aI-1
aI-1
aI-1
aI-1
aI69
aI-1
aI88
aI-1
aI-1
aI26
aI-1
aI-1
aI82
aI-1
aI-1
aI25
aI-1
aI-1
aI66
aI2
aI3
aI90
aI-1
aI-1
aI-1
aI63
aI-1
aI-1
aI66
aI-1
aI18
aI19
aI-1
aI75
aI-1
aI-1
aI-1
aI-1
aI61
aI62
aI-1
aI-1
aI77
aI82
aI-1
aI-1
aI-1
aI98
aI-1
aI-1
aI-1
aI-1
aI47
aI-1
aI101
aI-1
aI57
aI33
aI-1
aI102
aI-1
aI-1
aI-1
aI43
aI-1
aI81
aI82
aI92
aI85
aI86
aI-1
aI76
aI-1
aI-1
aI74
aI75
aI-1
aI-1
aI-1
aI-1
aI-1
aI-1
aI91
aI4
aI-1
aI64
aI-1
aI-1
aI-1
aI22
aI-1
aI11
aI-1
aI-1
aI-1
aI22
aI-1
aI10
aI-1
aI67
aI-1
aI-1
aI-1
aI-1
aI0
aI1
aI-1
aI-1
aI-1
aI-1
aI-1
aI-1
aI-1
aI77
aI70
aI71
aI-1
aI-1
aI-1
aI-1
aI96
aI-1
aI48
aI5
aI6
aI97
aI-1
aI-1
aI-1
aI-1
aI-1
aI86
aI-1
aI-1
aI-1
aI51
aI97
aI-1
aI-1
aI-1
aI84
aI7
aI-1
aI-1
aI-1
aI-1
aI-1
aI-1
aI-1
aI24
aI-1
aI23
aI-1
aI2
aI-1
aI-1
aI-1
aI67
aI36
aI37
aI38
aI50
aI49
aI-1
aI-1
aI-1
aI-1
aI-1
aI-1
aI-1
aI46
aI43
aI-1
aI38
aI-1
aI-1
aI-1
aI-1
aI-1
aI-1
aI-1
aI85
aI57
aI-1
aI-1
aI-1
aI-1
aI-1
aI44
aI-1
aI46
aI-1
aI-1
aI-1
aI-1
aI-1
aI103
aI104
aI-1
aI-1
aI-1
a.