(lp0
(lp1
(I2774
I0
tp2
a(I2875
I0
tp3
a(I2537
I0
tp4
a(I5010
I0
tp5
a(I4186
I0
tp6
a(I1585
I0
tp7
a(I1160
I0
tp8
a(I541
I0
tp9
a(I1509
I0
tp10
a(I700
I0
tp11
a(I193
I0
tp12
a(I2561
I0
tp13
a(I50
I0
tp14
a(I480
I0
tp15
a(I327
I0
tp16
a(I1397
I0
tp17
a(I4812
I0
tp18
a(I3594
I0
tp19
a(I1039
I0
tp20
a(I916
I0
tp21
a(I4203
I0
tp22
a(I3906
I0
tp23
a(I4249
I0
tp24
a(I2903
I0
tp25
a(I4654
I0
tp26
a(I901
I0
tp27
a(I3061
I0
tp28
a(I138
I0
tp29
a(I4280
I0
tp30
a(I1439
I0
tp31
a(I2652
I0
tp32
a(I4475
I0
tp33
a(I4562
I0
tp34
a(I3909
I0
tp35
a(I4332
I0
tp36
a(I1603
I0
tp37
a(I3119
I0
tp38
a(I3552
I0
tp39
a(I2223
I0
tp40
a(I2305
I0
tp41
a(I928
I0
tp42
a(I1949
I0
tp43
a(I2428
I0
tp44
a(I3626
I0
tp45
a(I513
I0
tp46
a(I3094
I0
tp47
a(I416
I0
tp48
a(I1374
I0
tp49
a(I1333
I0
tp50
a(I2207
I0
tp51
a(I3445
I0
tp52
a(I939
I0
tp53
a(I4098
I0
tp54
a(I4953
I0
tp55
a(I1584
I0
tp56
a(I5015
I0
tp57
a(I965
I0
tp58
a(I4538
I0
tp59
a(I1067
I1
tp60
a(I545
I0
tp61
a(I1784
I0
tp62
a(I4430
I0
tp63
aa(lp64
(I416
I1
tp65
a(I928
I1
tp66
a(I1374
I1
tp67
a(I3594
I1
tp68
a(I4538
I1
tp69
a(I327
I1
tp70
a(I1397
I1
tp71
a(I4098
I1
tp72
a(I1039
I1
tp73
a(I1584
I1
tp74
a(I3552
I1
tp75
a(I4203
I1
tp76
a(I4249
I1
tp77
a(I150
I0
tp78
a(I2903
I1
tp79
a(I1784
I1
tp80
a(I901
I1
tp81
a(I3119
I1
tp82
a(I5010
I1
tp83
a(I1439
I1
tp84
a(I4475
I1
tp85
a(I4186
I1
tp86
a(I1949
I1
tp87
a(I1160
I1
tp88
a(I1067
I2
tp89
a(I1603
I1
tp90
a(I4430
I1
tp91
a(I445
I0
tp92
a(I2223
I1
tp93
a(I3011
I0
tp94
a(I700
I1
tp95
a(I3061
I1
tp96
a(I2774
I1
tp97
a(I2207
I1
tp98
a(I513
I1
tp99
a(I50
I1
tp100
a(I480
I1
tp101
a(I4812
I1
tp102
a(I2305
I1
tp103
a(I1061
I0
tp104
a(I67
I0
tp105
a(I1333
I1
tp106
a(I2673
I0
tp107
a(I916
I1
tp108
a(I3906
I1
tp109
a(I1386
I0
tp110
a(I4654
I1
tp111
a(I939
I1
tp112
a(I2652
I1
tp113
a(I4953
I1
tp114
a(I138
I1
tp115
a(I5015
I1
tp116
a(I4280
I1
tp117
a(I965
I1
tp118
a(I545
I1
tp119
a(I4562
I1
tp120
a(I3445
I1
tp121
a(I2875
I1
tp122
a(I4332
I1
tp123
a(I2537
I1
tp124
a(I1585
I1
tp125
a(I4765
I0
tp126
a(I2561
I1
tp127
a(I541
I1
tp128
a(I3909
I1
tp129
a(I2428
I1
tp130
a(I3626
I1
tp131
a(I1509
I1
tp132
a(I3094
I1
tp133
a(I193
I1
tp134
a(I3259
I0
tp135
aa(lp136
(I4332
I2
tp137
a(I1603
I2
tp138
a(I1472
I0
tp139
a(I3119
I2
tp140
a(I3884
I0
tp141
a(I1539
I0
tp142
a(I3445
I2
tp143
a(I2543
I0
tp144
a(I1067
I3
tp145
a(I2673
I1
tp146
a(I445
I1
tp147
a(I1397
I2
tp148
a(I2246
I0
tp149
a(I416
I2
tp150
a(I3626
I2
tp151
a(I2305
I2
tp152
a(I1970
I0
tp153
a(I4765
I1
tp154
a(I67
I1
tp155
a(I1584
I2
tp156
a(I928
I2
tp157
a(I215
I0
tp158
a(I1784
I2
tp159
a(I1386
I1
tp160
a(I4098
I2
tp161
a(I1061
I1
tp162
a(I2875
I2
tp163
a(I965
I2
tp164
a(I2760
I0
tp165
a(I1160
I2
tp166
a(I2537
I2
tp167
a(I328
I0
tp168
a(I4186
I2
tp169
a(I1506
I0
tp170
a(I480
I2
tp171
a(I3259
I1
tp172
a(I1949
I2
tp173
a(I3011
I1
tp174
a(I3552
I2
tp175
a(I193
I2
tp176
a(I2774
I2
tp177
a(I1039
I2
tp178
a(I50
I2
tp179
a(I3359
I0
tp180
a(I4203
I2
tp181
a(I3061
I2
tp182
a(I84
I0
tp183
a(I2652
I2
tp184
a(I1369
I0
tp185
a(I4280
I2
tp186
a(I3906
I2
tp187
a(I4249
I2
tp188
a(I150
I1
tp189
a(I4654
I2
tp190
a(I4662
I0
tp191
a(I3981
I0
tp192
a(I3594
I2
tp193
aa(lp194
(I2774
I3
tp195
a(I67
I2
tp196
a(I2305
I3
tp197
a(I84
I1
tp198
a(I3011
I2
tp199
a(I2652
I3
tp200
a(I2673
I2
tp201
a(I3906
I3
tp202
a(I215
I1
tp203
a(I4662
I1
tp204
a(I3156
I0
tp205
a(I1061
I2
tp206
a(I965
I3
tp207
a(I1472
I1
tp208
a(I150
I2
tp209
a(I3884
I1
tp210
a(I3594
I3
tp211
a(I2246
I1
tp212
a(I4460
I0
tp213
a(I4634
I0
tp214
a(I3259
I2
tp215
a(I3359
I1
tp216
a(I3626
I3
tp217
a(I1970
I1
tp218
a(I193
I3
tp219
a(I3981
I1
tp220
a(I3823
I0
tp221
a(I3445
I3
tp222
a(I1122
I0
tp223
a(I1784
I3
tp224
a(I4098
I3
tp225
a(I1369
I1
tp226
a(I5029
I0
tp227
a(I764
I0
tp228
a(I4249
I3
tp229
a(I3552
I3
tp230
a(I1386
I2
tp231
a(I114
I0
tp232
a(I1160
I3
tp233
a(I1067
I4
tp234
a(I328
I1
tp235
a(I1539
I1
tp236
a(I4186
I3
tp237
a(I1506
I1
tp238
a(I2543
I1
tp239
a(I2760
I1
tp240
a(I445
I2
tp241
a(I2938
I0
tp242
a(I4765
I2
tp243
a(I480
I3
tp244
a(I2638
I0
tp245
aa(lp246
(I448
I0
tp247
a(I328
I2
tp248
a(I4360
I0
tp249
a(I3156
I1
tp250
a(I4662
I2
tp251
a(I1122
I1
tp252
a(I1506
I2
tp253
a(I663
I0
tp254
a(I3259
I3
tp255
a(I2760
I2
tp256
a(I2938
I1
tp257
a(I4249
I4
tp258
a(I84
I2
tp259
a(I4765
I3
tp260
a(I1369
I2
tp261
a(I5029
I1
tp262
a(I1121
I0
tp263
a(I1472
I2
tp264
a(I150
I3
tp265
a(I3884
I2
tp266
a(I1539
I2
tp267
a(I2652
I4
tp268
a(I3981
I2
tp269
a(I3594
I4
tp270
a(I2543
I2
tp271
a(I1067
I5
tp272
a(I860
I0
tp273
a(I390
I0
tp274
a(I2305
I4
tp275
a(I2995
I0
tp276
a(I2246
I2
tp277
a(I445
I3
tp278
a(I3011
I3
tp279
a(I539
I0
tp280
a(I2080
I0
tp281
a(I4460
I1
tp282
a(I67
I3
tp283
a(I4634
I1
tp284
a(I1970
I2
tp285
a(I4191
I0
tp286
a(I215
I2
tp287
a(I3823
I1
tp288
a(I2638
I1
tp289
a(I2673
I3
tp290
a(I764
I1
tp291
a(I1093
I0
tp292
a(I3359
I2
tp293
a(I4839
I0
tp294
a(I1160
I4
tp295
a(I1386
I3
tp296
a(I114
I1
tp297
a(I1061
I3
tp298
aa(lp299
(I2080
I1
tp300
a(I4460
I2
tp301
a(I2995
I1
tp302
a(I382
I0
tp303
a(I2517
I0
tp304
a(I3794
I0
tp305
a(I4634
I2
tp306
a(I764
I2
tp307
a(I3328
I0
tp308
a(I1381
I0
tp309
a(I1122
I2
tp310
a(I1369
I3
tp311
a(I5029
I2
tp312
a(I1121
I1
tp313
a(I2692
I0
tp314
a(I448
I1
tp315
a(I3499
I0
tp316
a(I328
I3
tp317
a(I2638
I2
tp318
a(I1386
I4
tp319
a(I114
I2
tp320
a(I4360
I1
tp321
a(I2543
I3
tp322
a(I4120
I0
tp323
a(I2305
I5
tp324
a(I4080
I0
tp325
a(I4839
I1
tp326
a(I445
I4
tp327
a(I4191
I1
tp328
a(I3011
I4
tp329
a(I2673
I4
tp330
a(I4662
I3
tp331
a(I539
I1
tp332
a(I446
I0
tp333
a(I84
I3
tp334
a(I2796
I0
tp335
a(I3594
I5
tp336
a(I215
I3
tp337
a(I860
I1
tp338
a(I663
I1
tp339
a(I3359
I3
tp340
a(I1472
I3
tp341
a(I2326
I0
tp342
a(I3884
I3
tp343
a(I1539
I3
tp344
a(I2652
I5
tp345
a(I1061
I4
tp346
a(I140
I0
tp347
a(I483
I0
tp348
a(I67
I4
tp349
a(I390
I1
tp350
a(I3981
I3
tp351
a(I2456
I0
tp352
a(I3823
I2
tp353
a(I2938
I2
tp354
a(I2246
I3
tp355
a(I560
I0
tp356
a(I3156
I2
tp357
a(I1093
I1
tp358
a(I2760
I3
tp359
a(I4196
I0
tp360
aa(lp361
(I1121
I2
tp362
a(I3689
I0
tp363
a(I140
I1
tp364
a(I4734
I0
tp365
a(I4396
I0
tp366
a(I3981
I4
tp367
a(I2938
I3
tp368
a(I326
I0
tp369
a(I2692
I1
tp370
a(I560
I1
tp371
a(I2809
I0
tp372
a(I390
I2
tp373
a(I663
I2
tp374
a(I2543
I4
tp375
a(I539
I2
tp376
a(I4756
I0
tp377
a(I4196
I1
tp378
a(I445
I5
tp379
a(I4460
I3
tp380
a(I67
I5
tp381
a(I91
I0
tp382
a(I382
I1
tp383
a(I414
I0
tp384
a(I3823
I3
tp385
a(I4634
I3
tp386
a(I764
I3
tp387
a(I2080
I2
tp388
a(I1689
I0
tp389
a(I4191
I2
tp390
a(I4120
I1
tp391
a(I2638
I3
tp392
a(I2314
I0
tp393
a(I1093
I2
tp394
a(I448
I2
tp395
a(I891
I0
tp396
a(I1115
I0
tp397
a(I1386
I5
tp398
a(I4360
I2
tp399
a(I3156
I3
tp400
a(I3359
I4
tp401
a(I483
I1
tp402
a(I4742
I0
tp403
a(I4080
I1
tp404
a(I2456
I1
tp405
a(I3472
I0
tp406
a(I380
I0
tp407
a(I4225
I0
tp408
a(I3794
I1
tp409
a(I3328
I1
tp410
a(I446
I1
tp411
a(I2796
I1
tp412
a(I2517
I1
tp413
a(I806
I0
tp414
a(I860
I2
tp415
a(I2995
I2
tp416
a(I3499
I1
tp417
a(I1472
I4
tp418
a(I1381
I1
tp419
a(I2326
I1
tp420
a(I1539
I4
tp421
a(I2580
I0
tp422
a(I4839
I2
tp423
a(I5029
I3
tp424
aa(lp425
(I2796
I2
tp426
a(I4841
I0
tp427
a(I91
I1
tp428
a(I3794
I2
tp429
a(I2580
I1
tp430
a(I806
I1
tp431
a(I446
I2
tp432
a(I414
I1
tp433
a(I860
I3
tp434
a(I663
I3
tp435
a(I1115
I1
tp436
a(I1689
I1
tp437
a(I4756
I1
tp438
a(I3823
I4
tp439
a(I4191
I3
tp440
a(I1093
I3
tp441
a(I140
I2
tp442
a(I483
I2
tp443
a(I891
I1
tp444
a(I4396
I1
tp445
a(I4981
I0
tp446
a(I326
I1
tp447
a(I3359
I5
tp448
a(I3689
I1
tp449
a(I560
I2
tp450
a(I235
I0
tp451
a(I2938
I4
tp452
a(I4196
I2
tp453
a(I3140
I0
tp454
a(I4225
I1
tp455
a(I174
I0
tp456
a(I4120
I2
tp457
a(I4734
I1
tp458
a(I1127
I0
tp459
a(I620
I0
tp460
a(I3559
I0
tp461
a(I2638
I4
tp462
a(I382
I2
tp463
a(I2517
I2
tp464
a(I4360
I3
tp465
a(I1121
I3
tp466
a(I2995
I3
tp467
a(I2314
I1
tp468
a(I3499
I2
tp469
a(I2692
I2
tp470
a(I448
I3
tp471
a(I1381
I2
tp472
a(I1539
I5
tp473
a(I4839
I3
tp474
a(I5029
I4
tp475
a(I764
I4
tp476
a(I2326
I2
tp477
a(I4742
I1
tp478
a(I4080
I2
tp479
a(I1206
I0
tp480
a(I3472
I1
tp481
a(I380
I1
tp482
a(I2809
I1
tp483
a(I3328
I2
tp484
a(I2456
I2
tp485
aa(lp486
(I414
I2
tp487
a(I1319
I0
tp488
a(I483
I3
tp489
a(I4981
I1
tp490
a(I4080
I3
tp491
a(I3499
I3
tp492
a(I3915
I0
tp493
a(I380
I2
tp494
a(I4742
I2
tp495
a(I3328
I3
tp496
a(I1407
I0
tp497
a(I91
I2
tp498
a(I4225
I2
tp499
a(I2953
I0
tp500
a(I2140
I0
tp501
a(I3794
I3
tp502
a(I629
I0
tp503
a(I1127
I1
tp504
a(I446
I3
tp505
a(I4120
I3
tp506
a(I1121
I4
tp507
a(I1523
I0
tp508
a(I1206
I1
tp509
a(I806
I2
tp510
a(I1582
I0
tp511
a(I3036
I0
tp512
a(I2945
I0
tp513
a(I140
I3
tp514
a(I1381
I3
tp515
a(I2326
I3
tp516
a(I347
I0
tp517
a(I3016
I0
tp518
a(I4734
I2
tp519
a(I3472
I2
tp520
a(I1378
I0
tp521
a(I174
I1
tp522
a(I326
I2
tp523
a(I4860
I0
tp524
a(I2809
I2
tp525
a(I1115
I2
tp526
a(I2580
I2
tp527
a(I1650
I0
tp528
a(I620
I1
tp529
a(I4841
I1
tp530
a(I2188
I0
tp531
a(I382
I3
tp532
a(I4756
I2
tp533
a(I3559
I1
tp534
a(I803
I0
tp535
a(I2456
I3
tp536
a(I235
I1
tp537
a(I366
I0
tp538
a(I448
I4
tp539
a(I1689
I2
tp540
a(I891
I2
tp541
a(I3823
I5
tp542
a(I3140
I1
tp543
a(I2314
I2
tp544
aa(lp545
(I3474
I0
tp546
a(I1769
I0
tp547
a(I347
I1
tp548
a(I2188
I1
tp549
a(I2953
I1
tp550
a(I2580
I3
tp551
a(I620
I2
tp552
a(I414
I3
tp553
a(I629
I1
tp554
a(I803
I1
tp555
a(I3183
I0
tp556
a(I454
I0
tp557
a(I3485
I0
tp558
a(I4120
I4
tp559
a(I366
I1
tp560
a(I448
I5
tp561
a(I316
I0
tp562
a(I3140
I2
tp563
a(I4715
I0
tp564
a(I1381
I4
tp565
a(I1523
I1
tp566
a(I4080
I4
tp567
a(I2339
I0
tp568
a(I380
I3
tp569
a(I1650
I1
tp570
a(I1539
I0
tp571
a(I3162
I0
tp572
a(I3328
I4
tp573
a(I1034
I0
tp574
a(I2809
I3
tp575
a(I1115
I3
tp576
a(I1206
I2
tp577
a(I983
I0
tp578
a(I1854
I0
tp579
a(I5013
I0
tp580
a(I4841
I2
tp581
a(I1096
I0
tp582
a(I221
I0
tp583
a(I1204
I0
tp584
a(I806
I3
tp585
a(I1582
I1
tp586
a(I3036
I1
tp587
a(I1689
I3
tp588
a(I1514
I0
tp589
a(I891
I3
tp590
a(I1133
I0
tp591
a(I2587
I0
tp592
a(I5003
I0
tp593
a(I2869
I0
tp594
a(I1319
I1
tp595
a(I3016
I1
tp596
a(I235
I2
tp597
a(I4981
I2
tp598
a(I1378
I1
tp599
a(I2945
I1
tp600
a(I326
I3
tp601
a(I35
I0
tp602
a(I3915
I1
tp603
a(I4860
I1
tp604
a(I1127
I2
tp605
a(I382
I4
tp606
a(I174
I2
tp607
a(I2140
I1
tp608
a(I3559
I2
tp609
a(I1407
I1
tp610
aa(lp611
(I326
I4
tp612
a(I4712
I0
tp613
a(I1381
I5
tp614
a(I2809
I4
tp615
a(I1204
I1
tp616
a(I2339
I1
tp617
a(I1615
I0
tp618
a(I4860
I2
tp619
a(I4715
I1
tp620
a(I382
I5
tp621
a(I1378
I2
tp622
a(I174
I3
tp623
a(I414
I4
tp624
a(I3474
I1
tp625
a(I3016
I2
tp626
a(I2945
I2
tp627
a(I2188
I2
tp628
a(I3774
I0
tp629
a(I2341
I0
tp630
a(I3162
I1
tp631
a(I3485
I1
tp632
a(I5013
I1
tp633
a(I454
I1
tp634
a(I4841
I3
tp635
a(I614
I0
tp636
a(I983
I1
tp637
a(I221
I1
tp638
a(I1523
I2
tp639
a(I5003
I1
tp640
a(I316
I1
tp641
a(I620
I3
tp642
a(I3140
I3
tp643
a(I1854
I1
tp644
a(I366
I2
tp645
a(I1319
I2
tp646
a(I1133
I1
tp647
a(I2587
I1
tp648
a(I1514
I1
tp649
a(I3559
I3
tp650
a(I2869
I1
tp651
a(I3915
I2
tp652
a(I35
I1
tp653
a(I235
I3
tp654
a(I4981
I3
tp655
a(I3810
I0
tp656
a(I2873
I0
tp657
a(I2808
I0
tp658
a(I1096
I1
tp659
a(I1407
I2
tp660
a(I1034
I1
tp661
a(I347
I2
tp662
a(I1282
I0
tp663
a(I1471
I0
tp664
a(I493
I0
tp665
a(I1206
I3
tp666
a(I1127
I3
tp667
a(I803
I2
tp668
a(I380
I4
tp669
a(I1769
I1
tp670
a(I2953
I2
tp671
a(I570
I0
tp672
a(I1539
I1
tp673
a(I629
I2
tp674
a(I1650
I2
tp675
a(I3183
I1
tp676
a(I3036
I2
tp677
a(I1943
I0
tp678
a(I1582
I2
tp679
a(I1631
I0
tp680
a(I2140
I2
tp681
aa(lp682
(I1096
I2
tp683
a(I570
I1
tp684
a(I4712
I1
tp685
a(I1204
I2
tp686
a(I5003
I2
tp687
a(I1854
I2
tp688
a(I5013
I2
tp689
a(I3036
I3
tp690
a(I3686
I0
tp691
a(I221
I2
tp692
a(I3810
I1
tp693
a(I4453
I0
tp694
a(I2808
I1
tp695
a(I2341
I1
tp696
a(I2587
I2
tp697
a(I895
I0
tp698
a(I3016
I3
tp699
a(I1133
I2
tp700
a(I174
I4
tp701
a(I2869
I2
tp702
a(I3915
I3
tp703
a(I1378
I3
tp704
a(I2873
I1
tp705
a(I1407
I3
tp706
a(I1631
I1
tp707
a(I347
I3
tp708
a(I2188
I3
tp709
a(I1471
I1
tp710
a(I493
I1
tp711
a(I1539
I2
tp712
a(I3183
I2
tp713
a(I3474
I2
tp714
a(I1769
I2
tp715
a(I614
I1
tp716
a(I2953
I3
tp717
a(I35
I2
tp718
a(I1615
I1
tp719
a(I3559
I4
tp720
a(I316
I2
tp721
a(I454
I2
tp722
a(I3485
I2
tp723
a(I2140
I3
tp724
a(I1943
I1
tp725
a(I366
I3
tp726
a(I1524
I0
tp727
a(I1514
I2
tp728
a(I1127
I4
tp729
a(I2339
I2
tp730
a(I1282
I1
tp731
a(I4715
I2
tp732
a(I3140
I4
tp733
a(I983
I2
tp734
a(I1206
I4
tp735
a(I620
I4
tp736
a(I2187
I0
tp737
a(I3774
I1
tp738
aa(lp739
(I1133
I3
tp740
a(I3140
I5
tp741
a(I3774
I2
tp742
a(I2886
I0
tp743
a(I1206
I5
tp744
a(I2869
I3
tp745
a(I4373
I0
tp746
a(I2187
I1
tp747
a(I1471
I2
tp748
a(I3810
I2
tp749
a(I2873
I2
tp750
a(I2341
I2
tp751
a(I1096
I3
tp752
a(I614
I2
tp753
a(I493
I2
tp754
a(I1539
I3
tp755
a(I1204
I3
tp756
a(I1854
I3
tp757
a(I1769
I3
tp758
a(I1524
I1
tp759
a(I1943
I2
tp760
a(I570
I2
tp761
a(I25
I0
tp762
a(I3559
I5
tp763
a(I2808
I2
tp764
a(I1631
I2
tp765
a(I3485
I3
tp766
a(I1722
I0
tp767
a(I1942
I0
tp768
a(I2140
I4
tp769
a(I2339
I3
tp770
a(I174
I5
tp771
a(I1132
I0
tp772
a(I3686
I1
tp773
a(I1282
I2
tp774
a(I4715
I3
tp775
a(I983
I3
tp776
a(I3897
I0
tp777
a(I4682
I0
tp778
a(I1378
I4
tp779
a(I4712
I2
tp780
a(I1615
I2
tp781
a(I738
I0
tp782
a(I366
I4
tp783
a(I335
I0
tp784
a(I5003
I3
tp785
a(I316
I3
tp786
a(I5013
I3
tp787
a(I454
I3
tp788
a(I1407
I4
tp789
a(I2188
I4
tp790
a(I2327
I0
tp791
a(I3950
I0
tp792
a(I581
I0
tp793
a(I221
I3
tp794
a(I4453
I1
tp795
a(I4216
I0
tp796
a(I1514
I3
tp797
a(I2587
I3
tp798
a(I895
I1
tp799
aa(lp800
(I1722
I1
tp801
a(I126
I0
tp802
a(I1237
I0
tp803
a(I493
I3
tp804
a(I1615
I3
tp805
a(I2187
I2
tp806
a(I3063
I0
tp807
a(I614
I3
tp808
a(I3950
I1
tp809
a(I25
I1
tp810
a(I2149
I0
tp811
a(I1258
I0
tp812
a(I4216
I1
tp813
a(I1631
I3
tp814
a(I3485
I4
tp815
a(I2339
I4
tp816
a(I1284
I0
tp817
a(I3163
I0
tp818
a(I316
I4
tp819
a(I4715
I4
tp820
a(I3140
I6
tp821
a(I5018
I0
tp822
a(I3774
I3
tp823
a(I4373
I1
tp824
a(I2886
I1
tp825
a(I3810
I3
tp826
a(I3897
I1
tp827
a(I1206
I6
tp828
a(I1854
I4
tp829
a(I983
I4
tp830
a(I4712
I3
tp831
a(I1349
I0
tp832
a(I1301
I0
tp833
a(I2540
I0
tp834
a(I1524
I2
tp835
a(I570
I3
tp836
a(I335
I1
tp837
a(I5013
I4
tp838
a(I1282
I3
tp839
a(I2126
I0
tp840
a(I895
I2
tp841
a(I2327
I1
tp842
a(I581
I1
tp843
a(I221
I4
tp844
a(I1204
I4
tp845
a(I4453
I2
tp846
a(I4682
I1
tp847
a(I2140
I5
tp848
a(I1132
I1
tp849
a(I1133
I4
tp850
a(I3749
I0
tp851
a(I2808
I3
tp852
a(I738
I1
tp853
a(I3686
I2
tp854
a(I1769
I4
tp855
a(I3571
I0
tp856
a(I1471
I3
tp857
a(I1942
I1
tp858
a(I2873
I3
tp859
a(I1539
I4
tp860
a(I3892
I0
tp861
a(I2341
I3
tp862
aa(lp863
(I1132
I2
tp864
a(I3163
I1
tp865
a(I1631
I4
tp866
a(I4373
I2
tp867
a(I738
I2
tp868
a(I3897
I2
tp869
a(I2808
I4
tp870
a(I614
I4
tp871
a(I126
I1
tp872
a(I1942
I2
tp873
a(I335
I2
tp874
a(I1301
I1
tp875
a(I2327
I2
tp876
a(I1722
I2
tp877
a(I5013
I5
tp878
a(I1258
I1
tp879
a(I3063
I1
tp880
a(I3774
I4
tp881
a(I1539
I5
tp882
a(I1284
I1
tp883
a(I221
I5
tp884
a(I4216
I2
tp885
a(I2873
I4
tp886
a(I581
I2
tp887
a(I2886
I2
tp888
a(I1349
I1
tp889
a(I3749
I1
tp890
a(I1769
I5
tp891
a(I3571
I1
tp892
a(I2879
I0
tp893
a(I4712
I4
tp894
a(I2341
I4
tp895
a(I3950
I2
tp896
a(I2540
I1
tp897
a(I5018
I1
tp898
a(I1524
I3
tp899
a(I1471
I4
tp900
a(I1237
I1
tp901
a(I3892
I1
tp902
a(I2140
I6
tp903
a(I2126
I1
tp904
a(I25
I2
tp905
a(I2149
I1
tp906
a(I4682
I2
tp907
a(I3485
I5
tp908
aa(lp909
(I2540
I2
tp910
a(I335
I3
tp911
a(I1301
I2
tp912
a(I3063
I2
tp913
a(I5018
I2
tp914
a(I2327
I3
tp915
a(I2126
I2
tp916
a(I3749
I2
tp917
a(I1132
I3
tp918
a(I581
I3
tp919
a(I1524
I4
tp920
a(I4259
I0
tp921
a(I3571
I2
tp922
a(I738
I3
tp923
a(I3892
I2
tp924
a(I1349
I2
tp925
a(I614
I5
tp926
a(I2879
I1
tp927
a(I1942
I3
tp928
a(I1471
I5
tp929
a(I2341
I5
tp930
a(I1722
I3
tp931
a(I126
I2
tp932
a(I1237
I2
tp933
a(I4216
I3
tp934
a(I3774
I5
tp935
a(I3950
I3
tp936
a(I1284
I2
tp937
a(I3163
I2
tp938
a(I25
I3
tp939
a(I2149
I2
tp940
a(I1258
I2
tp941
a(I1631
I5
tp942
a(I4373
I3
tp943
a(I2886
I3
tp944
a(I3897
I3
tp945
a(I4712
I5
tp946
aa(lp947
(I2327
I4
tp948
a(I2886
I4
tp949
a(I581
I4
tp950
a(I4259
I1
tp951
a(I3613
I0
tp952
a(I2763
I0
tp953
a(I5047
I0
tp954
a(I3571
I3
tp955
a(I2879
I2
tp956
a(I4216
I4
tp957
a(I1349
I3
tp958
a(I3892
I3
tp959
a(I1237
I3
tp960
a(I2114
I0
tp961
a(I1524
I5
tp962
a(I3163
I3
tp963
a(I2149
I3
tp964
a(I1214
I0
tp965
a(I3897
I4
tp966
a(I3830
I0
tp967
a(I1942
I4
tp968
a(I1132
I4
tp969
a(I738
I4
tp970
a(I25
I4
tp971
a(I614
I6
tp972
a(I126
I3
tp973
a(I1301
I3
tp974
a(I1722
I4
tp975
a(I335
I4
tp976
a(I3749
I3
tp977
aa(lp978
(I25
I5
tp979
a(I1237
I4
tp980
a(I2487
I0
tp981
a(I2011
I0
tp982
a(I4402
I0
tp983
a(I2078
I0
tp984
a(I3897
I5
tp985
a(I4971
I0
tp986
a(I322
I0
tp987
a(I3123
I0
tp988
a(I4315
I0
tp989
a(I2944
I0
tp990
a(I1644
I0
tp991
a(I4259
I2
tp992
a(I2114
I1
tp993
a(I2100
I0
tp994
a(I1301
I4
tp995
a(I126
I4
tp996
a(I3830
I1
tp997
a(I3892
I4
tp998
a(I1732
I0
tp999
a(I1214
I1
tp1000
a(I288
I0
tp1001
a(I581
I5
tp1002
a(I1804
I0
tp1003
a(I4963
I0
tp1004
a(I17
I0
tp1005
a(I1722
I5
tp1006
a(I3613
I1
tp1007
a(I2763
I1
tp1008
a(I5047
I1
tp1009
a(I3163
I4
tp1010
a(I738
I5
tp1011
aa(lp1012
(I288
I1
tp1013
a(I2011
I1
tp1014
a(I1804
I1
tp1015
a(I126
I5
tp1016
a(I1214
I2
tp1017
a(I111
I0
tp1018
a(I2973
I0
tp1019
a(I459
I0
tp1020
a(I3830
I2
tp1021
a(I997
I0
tp1022
a(I3123
I1
tp1023
a(I1688
I0
tp1024
a(I711
I0
tp1025
a(I2959
I0
tp1026
a(I1301
I5
tp1027
a(I2524
I0
tp1028
a(I1722
I6
tp1029
a(I2934
I0
tp1030
a(I4402
I1
tp1031
a(I2944
I1
tp1032
a(I2078
I1
tp1033
a(I4963
I1
tp1034
a(I1639
I0
tp1035
a(I4259
I3
tp1036
a(I1091
I0
tp1037
a(I2763
I2
tp1038
a(I2460
I0
tp1039
a(I17
I1
tp1040
a(I322
I1
tp1041
a(I4315
I1
tp1042
a(I3613
I2
tp1043
a(I5047
I2
tp1044
a(I2981
I0
tp1045
a(I2114
I2
tp1046
a(I1644
I1
tp1047
a(I2915
I0
tp1048
a(I2783
I0
tp1049
a(I2100
I1
tp1050
a(I4971
I1
tp1051
a(I1237
I5
tp1052
a(I2487
I1
tp1053
a(I3892
I5
tp1054
a(I1732
I1
tp1055
a(I3163
I5
tp1056
aa(lp1057
(I1644
I2
tp1058
a(I711
I1
tp1059
a(I2100
I2
tp1060
a(I2959
I1
tp1061
a(I2934
I1
tp1062
a(I2114
I3
tp1063
a(I60
I0
tp1064
a(I1732
I2
tp1065
a(I4545
I0
tp1066
a(I4259
I4
tp1067
a(I288
I2
tp1068
a(I3830
I3
tp1069
a(I1804
I2
tp1070
a(I4963
I2
tp1071
a(I670
I0
tp1072
a(I1639
I1
tp1073
a(I1214
I3
tp1074
a(I3793
I0
tp1075
a(I1091
I1
tp1076
a(I2763
I3
tp1077
a(I17
I2
tp1078
a(I5047
I3
tp1079
a(I3613
I3
tp1080
a(I1688
I1
tp1081
a(I2981
I1
tp1082
a(I4164
I0
tp1083
a(I1499
I0
tp1084
a(I4009
I0
tp1085
a(I2458
I0
tp1086
a(I2915
I1
tp1087
a(I1711
I0
tp1088
a(I2487
I2
tp1089
a(I2524
I1
tp1090
a(I997
I1
tp1091
a(I2011
I2
tp1092
a(I4298
I0
tp1093
a(I2783
I1
tp1094
a(I4402
I2
tp1095
a(I4971
I2
tp1096
a(I2078
I2
tp1097
a(I2895
I0
tp1098
a(I111
I1
tp1099
a(I4315
I2
tp1100
a(I2973
I1
tp1101
a(I3123
I2
tp1102
a(I459
I1
tp1103
a(I322
I2
tp1104
a(I2460
I1
tp1105
a(I2944
I2
tp1106
aa(lp1107
(I1091
I2
tp1108
a(I1499
I1
tp1109
a(I2763
I4
tp1110
a(I4963
I3
tp1111
a(I2078
I3
tp1112
a(I3793
I1
tp1113
a(I17
I3
tp1114
a(I322
I3
tp1115
a(I4298
I1
tp1116
a(I4402
I3
tp1117
a(I2944
I3
tp1118
a(I2981
I2
tp1119
a(I3613
I4
tp1120
a(I1644
I3
tp1121
a(I3469
I0
tp1122
a(I2915
I2
tp1123
a(I4009
I1
tp1124
a(I2100
I3
tp1125
a(I2460
I2
tp1126
a(I1711
I1
tp1127
a(I2487
I3
tp1128
a(I60
I1
tp1129
a(I2783
I2
tp1130
a(I1214
I4
tp1131
a(I288
I3
tp1132
a(I2114
I4
tp1133
a(I1804
I3
tp1134
a(I670
I1
tp1135
a(I1732
I3
tp1136
a(I111
I2
tp1137
a(I459
I2
tp1138
a(I4971
I3
tp1139
a(I2895
I1
tp1140
a(I3123
I3
tp1141
a(I997
I2
tp1142
a(I711
I2
tp1143
a(I2458
I1
tp1144
a(I2959
I2
tp1145
a(I2011
I3
tp1146
a(I2934
I2
tp1147
a(I2524
I2
tp1148
a(I3830
I4
tp1149
a(I2373
I0
tp1150
a(I4259
I5
tp1151
a(I4164
I1
tp1152
a(I4545
I1
tp1153
a(I1639
I2
tp1154
a(I1688
I2
tp1155
aa(lp1156
(I1732
I4
tp1157
a(I2915
I3
tp1158
a(I1711
I2
tp1159
a(I4009
I2
tp1160
a(I2524
I3
tp1161
a(I459
I3
tp1162
a(I2011
I4
tp1163
a(I4164
I2
tp1164
a(I2783
I3
tp1165
a(I1499
I2
tp1166
a(I2487
I4
tp1167
a(I4971
I4
tp1168
a(I2895
I2
tp1169
a(I111
I3
tp1170
a(I3123
I4
tp1171
a(I4402
I4
tp1172
a(I2944
I4
tp1173
a(I997
I3
tp1174
a(I2934
I3
tp1175
a(I3469
I1
tp1176
a(I2959
I3
tp1177
a(I2373
I1
tp1178
a(I2114
I5
tp1179
a(I2458
I2
tp1180
a(I4545
I2
tp1181
a(I1639
I3
tp1182
a(I1091
I3
tp1183
a(I2763
I5
tp1184
a(I670
I2
tp1185
a(I3793
I2
tp1186
a(I1688
I3
tp1187
a(I1804
I4
tp1188
a(I4298
I2
tp1189
aa(lp1190
(I459
I4
tp1191
a(I2430
I0
tp1192
a(I1732
I5
tp1193
a(I2895
I3
tp1194
a(I670
I3
tp1195
a(I1688
I4
tp1196
a(I4074
I0
tp1197
a(I1729
I0
tp1198
a(I4141
I0
tp1199
a(I997
I4
tp1200
a(I1248
I0
tp1201
a(I2458
I3
tp1202
a(I2934
I4
tp1203
a(I2959
I4
tp1204
a(I2373
I2
tp1205
a(I1270
I0
tp1206
a(I2524
I4
tp1207
a(I3469
I2
tp1208
a(I2272
I0
tp1209
a(I3354
I0
tp1210
a(I733
I0
tp1211
a(I1120
I0
tp1212
a(I1921
I0
tp1213
a(I4298
I3
tp1214
a(I498
I0
tp1215
a(I1711
I3
tp1216
a(I4009
I3
tp1217
a(I48
I0
tp1218
aa(lp1219
(I2363
I0
tp1220
a(I4141
I1
tp1221
a(I873
I0
tp1222
a(I4298
I4
tp1223
a(I4140
I0
tp1224
a(I48
I1
tp1225
a(I4258
I0
tp1226
a(I1706
I0
tp1227
a(I670
I4
tp1228
a(I2373
I3
tp1229
a(I2610
I0
tp1230
a(I2430
I1
tp1231
a(I3469
I3
tp1232
a(I4543
I0
tp1233
a(I1729
I1
tp1234
a(I2450
I0
tp1235
a(I733
I1
tp1236
a(I4074
I1
tp1237
a(I4214
I0
tp1238
a(I1248
I1
tp1239
a(I4224
I0
tp1240
a(I1932
I0
tp1241
a(I4803
I0
tp1242
a(I4209
I0
tp1243
a(I2934
I5
tp1244
a(I2272
I1
tp1245
a(I1120
I1
tp1246
a(I2458
I4
tp1247
a(I4342
I0
tp1248
a(I1270
I1
tp1249
a(I1810
I0
tp1250
a(I3734
I0
tp1251
a(I3913
I0
tp1252
a(I3354
I1
tp1253
a(I459
I5
tp1254
a(I145
I0
tp1255
a(I4968
I0
tp1256
a(I1921
I1
tp1257
a(I3033
I0
tp1258
a(I1518
I0
tp1259
a(I2895
I4
tp1260
a(I2680
I0
tp1261
a(I2614
I0
tp1262
a(I498
I1
tp1263
aa(lp1264
(I315
I0
tp1265
a(I2373
I4
tp1266
a(I1270
I2
tp1267
a(I1932
I1
tp1268
a(I4968
I1
tp1269
a(I4251
I0
tp1270
a(I3469
I4
tp1271
a(I48
I2
tp1272
a(I4939
I0
tp1273
a(I3449
I0
tp1274
a(I733
I2
tp1275
a(I4837
I0
tp1276
a(I2680
I1
tp1277
a(I2614
I1
tp1278
a(I3540
I0
tp1279
a(I3839
I0
tp1280
a(I4342
I1
tp1281
a(I1810
I1
tp1282
a(I1921
I2
tp1283
a(I4298
I5
tp1284
a(I4140
I1
tp1285
a(I373
I0
tp1286
a(I498
I2
tp1287
a(I4803
I1
tp1288
a(I4209
I1
tp1289
a(I4258
I1
tp1290
a(I1556
I0
tp1291
a(I2242
I0
tp1292
a(I2450
I1
tp1293
a(I988
I0
tp1294
a(I3251
I0
tp1295
a(I1248
I2
tp1296
a(I4074
I2
tp1297
a(I2550
I0
tp1298
a(I2610
I1
tp1299
a(I4543
I1
tp1300
a(I4224
I1
tp1301
a(I3113
I0
tp1302
a(I3913
I1
tp1303
a(I2430
I2
tp1304
a(I145
I1
tp1305
a(I3728
I0
tp1306
a(I3033
I1
tp1307
a(I1313
I0
tp1308
a(I4214
I1
tp1309
a(I3354
I2
tp1310
a(I1120
I2
tp1311
a(I990
I0
tp1312
a(I1729
I2
tp1313
a(I969
I0
tp1314
a(I2363
I1
tp1315
a(I4141
I2
tp1316
a(I873
I1
tp1317
a(I1359
I0
tp1318
a(I1518
I1
tp1319
a(I3284
I0
tp1320
a(I4718
I0
tp1321
a(I1706
I1
tp1322
a(I3734
I1
tp1323
a(I4999
I0
tp1324
a(I2272
I2
tp1325
a(I4068
I0
tp1326
aa(lp1327
(I4803
I2
tp1328
a(I3540
I1
tp1329
a(I3188
I0
tp1330
a(I3362
I0
tp1331
a(I2871
I0
tp1332
a(I4543
I2
tp1333
a(I2083
I0
tp1334
a(I3354
I3
tp1335
a(I2680
I2
tp1336
a(I3033
I2
tp1337
a(I2363
I2
tp1338
a(I1518
I2
tp1339
a(I969
I1
tp1340
a(I1810
I2
tp1341
a(I2242
I1
tp1342
a(I1313
I1
tp1343
a(I315
I1
tp1344
a(I2610
I2
tp1345
a(I3728
I1
tp1346
a(I3449
I1
tp1347
a(I2272
I3
tp1348
a(I4074
I3
tp1349
a(I4224
I2
tp1350
a(I4342
I2
tp1351
a(I3654
I0
tp1352
a(I1729
I3
tp1353
a(I2231
I0
tp1354
a(I4068
I1
tp1355
a(I1837
I0
tp1356
a(I1706
I2
tp1357
a(I3113
I1
tp1358
a(I4141
I3
tp1359
a(I3210
I0
tp1360
a(I2614
I2
tp1361
a(I195
I0
tp1362
a(I1248
I3
tp1363
a(I3913
I2
tp1364
a(I4939
I1
tp1365
a(I733
I3
tp1366
a(I1120
I3
tp1367
a(I4214
I2
tp1368
a(I4524
I0
tp1369
a(I3284
I1
tp1370
a(I3449
I0
tp1371
a(I55
I0
tp1372
a(I1596
I0
tp1373
a(I1270
I3
tp1374
a(I1932
I2
tp1375
a(I3734
I2
tp1376
a(I4418
I0
tp1377
a(I2939
I0
tp1378
a(I4999
I1
tp1379
a(I873
I2
tp1380
a(I48
I3
tp1381
a(I1556
I1
tp1382
a(I1359
I1
tp1383
a(I1715
I0
tp1384
a(I988
I1
tp1385
a(I4258
I2
tp1386
a(I2550
I1
tp1387
a(I1348
I0
tp1388
a(I3591
I0
tp1389
a(I2373
I5
tp1390
a(I3965
I0
tp1391
a(I2547
I0
tp1392
a(I4837
I1
tp1393
a(I1528
I0
tp1394
a(I3839
I1
tp1395
a(I990
I1
tp1396
a(I1921
I3
tp1397
a(I373
I1
tp1398
a(I4209
I2
tp1399
a(I4718
I1
tp1400
a(I3251
I1
tp1401
a(I3754
I0
tp1402
a(I145
I2
tp1403
a(I4140
I2
tp1404
a(I4251
I1
tp1405
a(I498
I3
tp1406
a(I2450
I2
tp1407
a(I3575
I0
tp1408
a(I170
I0
tp1409
a(I4353
I0
tp1410
a(I1624
I0
tp1411
a(I4968
I2
tp1412
a(I3698
I0
tp1413
a(I2430
I3
tp1414
a(I3469
I5
tp1415
a(I4641
I0
tp1416
a(I4068
I0
tp1417
aa(lp1418
(I1837
I1
tp1419
a(I3839
I2
tp1420
a(I3113
I2
tp1421
a(I203
I0
tp1422
a(I1528
I1
tp1423
a(I2994
I0
tp1424
a(I195
I1
tp1425
a(I3754
I1
tp1426
a(I315
I2
tp1427
a(I3354
I4
tp1428
a(I733
I4
tp1429
a(I4140
I3
tp1430
a(I2450
I3
tp1431
a(I750
I0
tp1432
a(I170
I1
tp1433
a(I55
I1
tp1434
a(I1624
I1
tp1435
a(I3698
I1
tp1436
a(I3734
I3
tp1437
a(I469
I0
tp1438
a(I1248
I4
tp1439
a(I1693
I0
tp1440
a(I4499
I0
tp1441
a(I4068
I1
tp1442
a(I2939
I1
tp1443
a(I4074
I4
tp1444
a(I3540
I2
tp1445
a(I4945
I0
tp1446
a(I873
I3
tp1447
a(I3188
I1
tp1448
a(I3362
I1
tp1449
a(I3449
I1
tp1450
a(I3262
I0
tp1451
a(I3591
I1
tp1452
a(I4939
I2
tp1453
a(I2242
I2
tp1454
a(I3965
I1
tp1455
a(I2680
I3
tp1456
a(I4418
I1
tp1457
a(I1518
I3
tp1458
a(I2547
I1
tp1459
a(I4837
I2
tp1460
a(I1810
I3
tp1461
a(I2613
I0
tp1462
a(I373
I2
tp1463
a(I1707
I0
tp1464
a(I4209
I3
tp1465
a(I2430
I4
tp1466
a(I3654
I1
tp1467
a(I846
I0
tp1468
a(I2793
I0
tp1469
a(I2610
I3
tp1470
a(I3728
I2
tp1471
a(I145
I3
tp1472
a(I4151
I0
tp1473
a(I2272
I4
tp1474
a(I4999
I2
tp1475
a(I1359
I2
tp1476
a(I4141
I4
tp1477
a(I3575
I1
tp1478
a(I4068
I2
tp1479
a(I4353
I1
tp1480
a(I4968
I3
tp1481
a(I3913
I3
tp1482
a(I3210
I1
tp1483
a(I4641
I1
tp1484
a(I2614
I3
tp1485
a(I4803
I3
tp1486
a(I949
I0
tp1487
a(I3251
I2
tp1488
a(I2871
I1
tp1489
a(I2550
I2
tp1490
a(I2083
I1
tp1491
a(I4251
I2
tp1492
a(I3033
I3
tp1493
a(I2363
I3
tp1494
a(I4214
I3
tp1495
a(I1715
I1
tp1496
a(I4524
I1
tp1497
a(I969
I2
tp1498
a(I3284
I2
tp1499
a(I990
I2
tp1500
a(I1596
I1
tp1501
a(I4718
I2
tp1502
a(I1932
I3
tp1503
a(I1313
I2
tp1504
a(I1921
I4
tp1505
a(I3449
I2
tp1506
a(I1556
I2
tp1507
a(I988
I2
tp1508
a(I4258
I3
tp1509
a(I2231
I1
tp1510
a(I1348
I1
tp1511
aa(lp1512
(I195
I2
tp1513
a(I172
I0
tp1514
a(I90
I0
tp1515
a(I4945
I1
tp1516
a(I4212
I0
tp1517
a(I2550
I3
tp1518
a(I4939
I3
tp1519
a(I2626
I0
tp1520
a(I3965
I2
tp1521
a(I179
I0
tp1522
a(I2232
I0
tp1523
a(I4837
I3
tp1524
a(I4524
I2
tp1525
a(I3284
I3
tp1526
a(I990
I3
tp1527
a(I2613
I1
tp1528
a(I2083
I2
tp1529
a(I55
I2
tp1530
a(I373
I3
tp1531
a(I1596
I2
tp1532
a(I1707
I1
tp1533
a(I4125
I0
tp1534
a(I4718
I3
tp1535
a(I3053
I0
tp1536
a(I4256
I0
tp1537
a(I2793
I1
tp1538
a(I4195
I0
tp1539
a(I4395
I0
tp1540
a(I4151
I1
tp1541
a(I2939
I2
tp1542
a(I1556
I3
tp1543
a(I131
I0
tp1544
a(I988
I3
tp1545
a(I1348
I2
tp1546
a(I2680
I4
tp1547
a(I3591
I2
tp1548
a(I170
I2
tp1549
a(I4353
I2
tp1550
a(I3698
I2
tp1551
a(I1715
I2
tp1552
a(I2068
I0
tp1553
a(I2547
I2
tp1554
a(I1932
I4
tp1555
a(I1528
I2
tp1556
a(I3839
I3
tp1557
a(I2994
I1
tp1558
a(I4641
I2
tp1559
a(I949
I1
tp1560
a(I3251
I3
tp1561
a(I3362
I2
tp1562
a(I1000
I0
tp1563
a(I197
I0
tp1564
a(I1656
I0
tp1565
a(I4251
I3
tp1566
a(I4529
I0
tp1567
a(I969
I3
tp1568
a(I3575
I2
tp1569
a(I2610
I4
tp1570
a(I750
I1
tp1571
a(I2242
I3
tp1572
a(I1624
I2
tp1573
a(I1313
I3
tp1574
a(I1766
I0
tp1575
a(I1879
I0
tp1576
a(I4068
I2
tp1577
a(I3449
I3
tp1578
a(I4209
I4
tp1579
a(I3540
I3
tp1580
a(I3188
I2
tp1581
a(I1521
I0
tp1582
a(I2871
I2
tp1583
a(I4481
I0
tp1584
a(I1343
I0
tp1585
a(I145
I4
tp1586
a(I3262
I1
tp1587
a(I2997
I0
tp1588
a(I3113
I3
tp1589
a(I2516
I0
tp1590
a(I846
I1
tp1591
a(I203
I1
tp1592
a(I2363
I4
tp1593
a(I4499
I1
tp1594
a(I3210
I2
tp1595
a(I315
I3
tp1596
a(I2697
I0
tp1597
a(I588
I0
tp1598
a(I3728
I3
tp1599
a(I3754
I2
tp1600
a(I415
I0
tp1601
a(I873
I4
tp1602
a(I2231
I2
tp1603
a(I4068
I3
tp1604
a(I3449
I2
tp1605
a(I948
I0
tp1606
a(I4968
I4
tp1607
a(I795
I0
tp1608
a(I3033
I4
tp1609
a(I469
I1
tp1610
a(I1693
I1
tp1611
a(I4418
I2
tp1612
aa(lp1613
(I4256
I1
tp1614
a(I3591
I3
tp1615
a(I4353
I3
tp1616
a(I4939
I4
tp1617
a(I2697
I1
tp1618
a(I4370
I0
tp1619
a(I1000
I1
tp1620
a(I4212
I1
tp1621
a(I3262
I2
tp1622
a(I2516
I1
tp1623
a(I4529
I1
tp1624
a(I795
I1
tp1625
a(I1596
I3
tp1626
a(I197
I1
tp1627
a(I1656
I1
tp1628
a(I3698
I3
tp1629
a(I846
I2
tp1630
a(I415
I1
tp1631
a(I4209
I5
tp1632
a(I179
I1
tp1633
a(I172
I1
tp1634
a(I90
I1
tp1635
a(I2550
I4
tp1636
a(I750
I2
tp1637
a(I1707
I2
tp1638
a(I2613
I2
tp1639
a(I1521
I1
tp1640
a(I2231
I3
tp1641
a(I1624
I3
tp1642
a(I3113
I4
tp1643
a(I2997
I1
tp1644
a(I3449
I3
tp1645
a(I3754
I3
tp1646
a(I203
I2
tp1647
a(I1343
I1
tp1648
a(I1766
I1
tp1649
a(I3053
I1
tp1650
a(I988
I4
tp1651
a(I588
I1
tp1652
a(I2083
I3
tp1653
a(I3728
I4
tp1654
a(I2793
I2
tp1655
a(I2068
I1
tp1656
a(I2610
I5
tp1657
a(I4195
I1
tp1658
a(I469
I2
tp1659
a(I2626
I1
tp1660
a(I4641
I3
tp1661
a(I1528
I3
tp1662
a(I4395
I1
tp1663
a(I1693
I2
tp1664
a(I1715
I3
tp1665
a(I4068
I3
tp1666
a(I2232
I1
tp1667
a(I990
I4
tp1668
a(I1879
I1
tp1669
a(I2939
I3
tp1670
a(I4524
I3
tp1671
a(I3540
I4
tp1672
a(I2994
I2
tp1673
a(I4718
I4
tp1674
a(I131
I1
tp1675
a(I948
I1
tp1676
a(I4499
I2
tp1677
a(I1313
I4
tp1678
a(I4481
I1
tp1679
a(I4945
I2
tp1680
a(I4125
I1
tp1681
a(I4151
I2
tp1682
a(I3284
I4
tp1683
a(I4968
I5
tp1684
a(I2547
I3
tp1685
aa(lp1686
(I4626
I0
tp1687
a(I2994
I3
tp1688
a(I4718
I5
tp1689
a(I2642
I0
tp1690
a(I948
I2
tp1691
a(I1707
I3
tp1692
a(I2613
I3
tp1693
a(I1521
I2
tp1694
a(I4524
I4
tp1695
a(I1463
I0
tp1696
a(I4641
I4
tp1697
a(I1343
I2
tp1698
a(I3698
I4
tp1699
a(I3540
I5
tp1700
a(I3113
I5
tp1701
a(I795
I2
tp1702
a(I2083
I4
tp1703
a(I4256
I2
tp1704
a(I4370
I1
tp1705
a(I2231
I4
tp1706
a(I4195
I2
tp1707
a(I1596
I4
tp1708
a(I3053
I2
tp1709
a(I1000
I2
tp1710
a(I2516
I2
tp1711
a(I4395
I2
tp1712
a(I2793
I3
tp1713
a(I1715
I4
tp1714
a(I203
I3
tp1715
a(I469
I3
tp1716
a(I4151
I3
tp1717
a(I2352
I0
tp1718
a(I1656
I2
tp1719
a(I1693
I3
tp1720
a(I846
I3
tp1721
a(I4448
I0
tp1722
a(I197
I2
tp1723
a(I4499
I3
tp1724
a(I172
I2
tp1725
a(I131
I2
tp1726
a(I415
I2
tp1727
a(I4212
I2
tp1728
a(I2550
I5
tp1729
a(I1624
I4
tp1730
a(I4529
I2
tp1731
a(I1313
I5
tp1732
a(I4945
I3
tp1733
a(I4125
I2
tp1734
a(I4353
I4
tp1735
a(I4481
I2
tp1736
a(I750
I3
tp1737
a(I90
I2
tp1738
a(I4446
I0
tp1739
a(I988
I5
tp1740
a(I588
I2
tp1741
a(I3728
I5
tp1742
a(I3754
I4
tp1743
a(I4939
I5
tp1744
a(I2697
I2
tp1745
a(I2068
I2
tp1746
a(I2547
I4
tp1747
a(I2997
I2
tp1748
a(I1879
I2
tp1749
a(I1528
I4
tp1750
a(I3591
I4
tp1751
a(I179
I2
tp1752
a(I1766
I2
tp1753
a(I2232
I2
tp1754
a(I990
I5
tp1755
a(I2626
I2
tp1756
a(I1441
I0
tp1757
aa(lp1758
(I4446
I1
tp1759
a(I4481
I3
tp1760
a(I3053
I3
tp1761
a(I1370
I0
tp1762
a(I3698
I5
tp1763
a(I1528
I5
tp1764
a(I4395
I3
tp1765
a(I2997
I3
tp1766
a(I1766
I3
tp1767
a(I489
I0
tp1768
a(I848
I0
tp1769
a(I2359
I0
tp1770
a(I741
I0
tp1771
a(I1693
I4
tp1772
a(I4626
I1
tp1773
a(I197
I3
tp1774
a(I2119
I0
tp1775
a(I3477
I0
tp1776
a(I948
I3
tp1777
a(I4716
I0
tp1778
a(I4718
I6
tp1779
a(I4524
I5
tp1780
a(I1313
I6
tp1781
a(I2642
I1
tp1782
a(I4125
I3
tp1783
a(I2099
I0
tp1784
a(I4256
I3
tp1785
a(I2468
I0
tp1786
a(I4448
I1
tp1787
a(I1000
I3
tp1788
a(I2376
I0
tp1789
a(I2501
I0
tp1790
a(I2516
I3
tp1791
a(I4370
I2
tp1792
a(I2697
I3
tp1793
a(I1656
I3
tp1794
a(I3591
I5
tp1795
a(I179
I3
tp1796
a(I1619
I0
tp1797
a(I415
I3
tp1798
a(I2049
I0
tp1799
a(I1441
I1
tp1800
a(I172
I3
tp1801
a(I4763
I0
tp1802
a(I2352
I1
tp1803
a(I1707
I4
tp1804
a(I750
I4
tp1805
a(I90
I3
tp1806
a(I2230
I0
tp1807
a(I2785
I0
tp1808
a(I2793
I4
tp1809
a(I2550
I6
tp1810
a(I3511
I0
tp1811
a(I795
I3
tp1812
a(I588
I3
tp1813
a(I1463
I1
tp1814
aa(lp1815
(I197
I4
tp1816
a(I4446
I2
tp1817
a(I2119
I1
tp1818
a(I3064
I0
tp1819
a(I582
I0
tp1820
a(I2251
I0
tp1821
a(I1864
I0
tp1822
a(I4763
I1
tp1823
a(I2697
I4
tp1824
a(I3412
I0
tp1825
a(I4716
I1
tp1826
a(I2230
I1
tp1827
a(I2099
I1
tp1828
a(I2785
I1
tp1829
a(I2395
I0
tp1830
a(I1370
I1
tp1831
a(I3477
I1
tp1832
a(I3591
I6
tp1833
a(I2642
I2
tp1834
a(I2352
I2
tp1835
a(I848
I1
tp1836
a(I4547
I0
tp1837
a(I3698
I6
tp1838
a(I4152
I0
tp1839
a(I2049
I1
tp1840
a(I1441
I2
tp1841
a(I1883
I0
tp1842
a(I2688
I0
tp1843
a(I4626
I2
tp1844
a(I415
I4
tp1845
a(I3511
I1
tp1846
a(I1463
I2
tp1847
a(I4532
I0
tp1848
a(I2146
I0
tp1849
a(I2501
I1
tp1850
a(I948
I4
tp1851
a(I2468
I1
tp1852
a(I4448
I2
tp1853
a(I2644
I0
tp1854
a(I1619
I1
tp1855
a(I2592
I0
tp1856
a(I4370
I3
tp1857
a(I489
I1
tp1858
a(I2376
I1
tp1859
a(I1656
I4
tp1860
a(I739
I0
tp1861
a(I2997
I4
tp1862
a(I688
I0
tp1863
a(I2359
I1
tp1864
a(I741
I1
tp1865
a(I929
I0
tp1866
a(I4728
I0
tp1867
a(I996
I0
tp1868
aa(lp1869
(I2592
I1
tp1870
a(I4716
I2
tp1871
a(I2395
I1
tp1872
a(I2376
I2
tp1873
a(I4547
I1
tp1874
a(I2644
I1
tp1875
a(I4370
I4
tp1876
a(I688
I1
tp1877
a(I3064
I1
tp1878
a(I1619
I2
tp1879
a(I1883
I1
tp1880
a(I4728
I1
tp1881
a(I4763
I2
tp1882
a(I996
I1
tp1883
a(I2049
I2
tp1884
a(I1441
I3
tp1885
a(I2642
I3
tp1886
a(I582
I1
tp1887
a(I415
I5
tp1888
a(I1463
I3
tp1889
a(I3477
I2
tp1890
a(I3681
I0
tp1891
a(I2501
I2
tp1892
a(I2230
I2
tp1893
a(I4446
I3
tp1894
a(I3412
I1
tp1895
a(I2352
I3
tp1896
a(I739
I1
tp1897
a(I848
I2
tp1898
a(I2359
I2
tp1899
a(I1370
I2
tp1900
a(I1209
I0
tp1901
a(I3511
I2
tp1902
a(I4152
I1
tp1903
a(I741
I2
tp1904
a(I929
I1
tp1905
a(I2119
I2
tp1906
a(I2688
I1
tp1907
a(I4626
I3
tp1908
a(I1864
I1
tp1909
a(I2785
I2
tp1910
a(I4532
I1
tp1911
a(I2146
I1
tp1912
a(I2099
I2
tp1913
a(I2251
I1
tp1914
a(I948
I5
tp1915
a(I2468
I2
tp1916
a(I4448
I3
tp1917
a(I489
I2
tp1918
aa(lp1919
(I4547
I2
tp1920
a(I2049
I3
tp1921
a(I1864
I2
tp1922
a(I4448
I4
tp1923
a(I4626
I4
tp1924
a(I4713
I0
tp1925
a(I948
I6
tp1926
a(I2468
I3
tp1927
a(I2146
I2
tp1928
a(I3681
I1
tp1929
a(I4716
I3
tp1930
a(I2501
I3
tp1931
a(I1463
I4
tp1932
a(I3064
I2
tp1933
a(I2376
I3
tp1934
a(I4763
I3
tp1935
a(I2644
I2
tp1936
a(I4370
I5
tp1937
a(I489
I3
tp1938
a(I688
I2
tp1939
a(I2359
I3
tp1940
a(I4728
I2
tp1941
a(I996
I2
tp1942
a(I741
I3
tp1943
a(I929
I2
tp1944
a(I2119
I3
tp1945
a(I2688
I2
tp1946
a(I2251
I2
tp1947
a(I4380
I0
tp1948
a(I2642
I4
tp1949
a(I582
I2
tp1950
a(I4446
I4
tp1951
a(I2395
I2
tp1952
a(I2230
I3
tp1953
a(I2785
I3
tp1954
a(I2352
I4
tp1955
a(I848
I3
tp1956
a(I1441
I4
tp1957
a(I3477
I3
tp1958
a(I1209
I1
tp1959
a(I1619
I3
tp1960
a(I3412
I2
tp1961
a(I1883
I2
tp1962
a(I739
I2
tp1963
aa(lp1964
(I739
I3
tp1965
a(I848
I4
tp1966
a(I1437
I0
tp1967
a(I4380
I1
tp1968
a(I234
I0
tp1969
a(I2688
I3
tp1970
a(I1453
I0
tp1971
a(I1028
I0
tp1972
a(I1864
I3
tp1973
a(I3412
I3
tp1974
a(I4626
I5
tp1975
a(I2119
I4
tp1976
a(I2146
I3
tp1977
a(I1782
I0
tp1978
a(I4301
I0
tp1979
a(I2376
I4
tp1980
a(I2644
I3
tp1981
a(I3144
I0
tp1982
a(I1619
I4
tp1983
a(I3477
I4
tp1984
a(I996
I3
tp1985
a(I2567
I0
tp1986
a(I4713
I1
tp1987
a(I3064
I3
tp1988
a(I1883
I3
tp1989
aa(lp1990
(I1453
I1
tp1991
a(I1856
I0
tp1992
a(I3280
I0
tp1993
a(I1883
I4
tp1994
a(I2132
I0
tp1995
a(I4868
I0
tp1996
a(I1586
I0
tp1997
a(I2831
I0
tp1998
a(I1341
I0
tp1999
a(I3476
I0
tp2000
a(I4380
I2
tp2001
a(I1561
I0
tp2002
a(I855
I0
tp2003
a(I234
I1
tp2004
a(I1028
I1
tp2005
a(I2567
I1
tp2006
a(I4713
I2
tp2007
a(I4301
I1
tp2008
a(I1782
I1
tp2009
a(I2146
I4
tp2010
a(I365
I0
tp2011
a(I3104
I0
tp2012
a(I4962
I0
tp2013
a(I3144
I1
tp2014
a(I4559
I0
tp2015
a(I3064
I4
tp2016
a(I2219
I0
tp2017
a(I1437
I1
tp2018
a(I3412
I4
tp2019
aa(lp2020
(I3104
I1
tp2021
a(I1782
I2
tp2022
a(I4301
I2
tp2023
a(I3144
I2
tp2024
a(I1574
I0
tp2025
a(I2696
I0
tp2026
a(I2132
I1
tp2027
a(I2831
I1
tp2028
a(I1341
I1
tp2029
a(I633
I0
tp2030
a(I1561
I1
tp2031
a(I855
I1
tp2032
a(I3412
I5
tp2033
a(I935
I0
tp2034
a(I3455
I0
tp2035
a(I2567
I2
tp2036
a(I1856
I1
tp2037
a(I2226
I0
tp2038
a(I3680
I0
tp2039
a(I2247
I0
tp2040
a(I4561
I0
tp2041
a(I4713
I3
tp2042
a(I3280
I1
tp2043
a(I3245
I0
tp2044
a(I4868
I1
tp2045
a(I1586
I1
tp2046
a(I4910
I0
tp2047
a(I365
I1
tp2048
a(I3144
I0
tp2049
a(I62
I0
tp2050
a(I4122
I0
tp2051
a(I241
I0
tp2052
a(I2248
I0
tp2053
a(I3476
I1
tp2054
a(I4380
I3
tp2055
a(I4559
I1
tp2056
a(I441
I0
tp2057
a(I2219
I1
tp2058
a(I1437
I2
tp2059
a(I1028
I2
tp2060
a(I4769
I0
tp2061
a(I234
I2
tp2062
a(I1453
I2
tp2063
a(I4026
I0
tp2064
a(I2767
I0
tp2065
a(I422
I0
tp2066
a(I4962
I1
tp2067
a(I1308
I0
tp2068
a(I2146
I5
tp2069
aa(lp2070
(I2567
I3
tp2071
a(I4380
I4
tp2072
a(I4561
I1
tp2073
a(I3285
I0
tp2074
a(I2247
I1
tp2075
a(I1283
I0
tp2076
a(I422
I1
tp2077
a(I4156
I0
tp2078
a(I4122
I1
tp2079
a(I1574
I1
tp2080
a(I2152
I0
tp2081
a(I1308
I1
tp2082
a(I3197
I0
tp2083
a(I4962
I2
tp2084
a(I2963
I0
tp2085
a(I935
I1
tp2086
a(I3104
I2
tp2087
a(I1782
I3
tp2088
a(I3785
I0
tp2089
a(I3144
I3
tp2090
a(I365
I2
tp2091
a(I2974
I0
tp2092
a(I4559
I2
tp2093
a(I2696
I1
tp2094
a(I2132
I2
tp2095
a(I2219
I2
tp2096
a(I2319
I0
tp2097
a(I241
I1
tp2098
a(I1329
I0
tp2099
a(I4769
I1
tp2100
a(I4290
I0
tp2101
a(I3184
I0
tp2102
a(I3412
I6
tp2103
a(I1437
I3
tp2104
a(I3245
I1
tp2105
a(I4026
I1
tp2106
a(I1856
I2
tp2107
a(I2226
I1
tp2108
a(I441
I1
tp2109
a(I3680
I1
tp2110
a(I4713
I4
tp2111
a(I1453
I3
tp2112
a(I1500
I0
tp2113
a(I3280
I2
tp2114
a(I2310
I0
tp2115
a(I3059
I0
tp2116
a(I4910
I1
tp2117
a(I1445
I0
tp2118
a(I4868
I2
tp2119
a(I2767
I1
tp2120
a(I1503
I0
tp2121
a(I923
I0
tp2122
a(I1394
I0
tp2123
a(I62
I1
tp2124
a(I821
I0
tp2125
a(I2831
I2
tp2126
a(I1586
I2
tp2127
a(I2248
I1
tp2128
a(I3476
I2
tp2129
a(I4301
I3
tp2130
a(I1871
I0
tp2131
a(I855
I2
tp2132
a(I4907
I0
tp2133
a(I3144
I1
tp2134
a(I2608
I0
tp2135
a(I1341
I2
tp2136
a(I633
I1
tp2137
a(I1028
I3
tp2138
a(I1561
I2
tp2139
a(I515
I0
tp2140
a(I4772
I0
tp2141
a(I234
I3
tp2142
a(I3455
I1
tp2143
aa(lp2144
(I5028
I0
tp2145
a(I2248
I2
tp2146
a(I4559
I3
tp2147
a(I62
I2
tp2148
a(I2608
I1
tp2149
a(I720
I0
tp2150
a(I408
I0
tp2151
a(I3135
I0
tp2152
a(I4026
I2
tp2153
a(I1308
I2
tp2154
a(I1574
I2
tp2155
a(I2309
I0
tp2156
a(I4962
I3
tp2157
a(I935
I2
tp2158
a(I4769
I2
tp2159
a(I2831
I3
tp2160
a(I4290
I1
tp2161
a(I3184
I1
tp2162
a(I4737
I0
tp2163
a(I63
I0
tp2164
a(I3680
I2
tp2165
a(I2247
I2
tp2166
a(I672
I0
tp2167
a(I4277
I0
tp2168
a(I515
I1
tp2169
a(I4910
I2
tp2170
a(I1380
I0
tp2171
a(I361
I0
tp2172
a(I1384
I0
tp2173
a(I3144
I2
tp2174
a(I1493
I0
tp2175
a(I4570
I0
tp2176
a(I4122
I2
tp2177
a(I3234
I0
tp2178
a(I4542
I0
tp2179
a(I4320
I0
tp2180
a(I424
I0
tp2181
a(I422
I2
tp2182
a(I3104
I3
tp2183
a(I164
I0
tp2184
a(I4603
I0
tp2185
a(I923
I1
tp2186
a(I2132
I3
tp2187
a(I3293
I0
tp2188
a(I3455
I2
tp2189
a(I633
I2
tp2190
a(I1856
I3
tp2191
a(I3059
I1
tp2192
a(I1341
I3
tp2193
a(I3576
I0
tp2194
a(I3197
I1
tp2195
a(I3285
I1
tp2196
a(I1740
I0
tp2197
a(I1329
I1
tp2198
a(I3254
I0
tp2199
a(I4561
I2
tp2200
a(I144
I0
tp2201
a(I4868
I3
tp2202
a(I1586
I3
tp2203
a(I3476
I3
tp2204
a(I365
I3
tp2205
a(I2152
I1
tp2206
a(I2319
I1
tp2207
a(I241
I2
tp2208
a(I4813
I0
tp2209
a(I441
I2
tp2210
a(I1437
I4
tp2211
a(I4244
I0
tp2212
a(I3245
I0
tp2213
a(I260
I0
tp2214
a(I4380
I5
tp2215
a(I1202
I0
tp2216
a(I1561
I3
tp2217
a(I1782
I4
tp2218
a(I2682
I0
tp2219
a(I4843
I0
tp2220
a(I973
I0
tp2221
a(I2974
I1
tp2222
a(I3785
I1
tp2223
a(I821
I1
tp2224
a(I3057
I0
tp2225
a(I1871
I1
tp2226
a(I1803
I0
tp2227
a(I1500
I1
tp2228
a(I1445
I1
tp2229
a(I4713
I5
tp2230
a(I728
I0
tp2231
a(I4772
I1
tp2232
a(I1503
I1
tp2233
a(I1283
I1
tp2234
a(I461
I0
tp2235
a(I2963
I1
tp2236
a(I2310
I1
tp2237
a(I1394
I1
tp2238
a(I3684
I0
tp2239
a(I2235
I0
tp2240
a(I2435
I0
tp2241
a(I3290
I0
tp2242
a(I2219
I3
tp2243
a(I2567
I4
tp2244
a(I649
I0
tp2245
a(I234
I4
tp2246
a(I2767
I2
tp2247
a(I2636
I0
tp2248
a(I1453
I4
tp2249
a(I1028
I4
tp2250
a(I2150
I0
tp2251
a(I4156
I1
tp2252
a(I4250
I0
tp2253
a(I3144
I4
tp2254
a(I3072
I0
tp2255
a(I2696
I2
tp2256
a(I4301
I4
tp2257
a(I855
I3
tp2258
a(I4907
I1
tp2259
a(I523
I0
tp2260
a(I3245
I2
tp2261
a(I2226
I2
tp2262
a(I3280
I3
tp2263
a(I371
I0
tp2264
aa(lp2265
(I672
I1
tp2266
a(I3245
I1
tp2267
a(I2435
I1
tp2268
a(I649
I1
tp2269
a(I1384
I1
tp2270
a(I2767
I3
tp2271
a(I5028
I1
tp2272
a(I4843
I1
tp2273
a(I1453
I5
tp2274
a(I2608
I2
tp2275
a(I4320
I1
tp2276
a(I19
I0
tp2277
a(I4603
I1
tp2278
a(I2310
I2
tp2279
a(I4244
I1
tp2280
a(I101
I0
tp2281
a(I2309
I1
tp2282
a(I4910
I3
tp2283
a(I973
I1
tp2284
a(I3254
I1
tp2285
a(I3290
I1
tp2286
a(I1445
I2
tp2287
a(I4250
I1
tp2288
a(I461
I1
tp2289
a(I2248
I3
tp2290
a(I4769
I3
tp2291
a(I1561
I4
tp2292
a(I1394
I2
tp2293
a(I3785
I2
tp2294
a(I1380
I1
tp2295
a(I1586
I4
tp2296
a(I3234
I1
tp2297
a(I720
I1
tp2298
a(I3293
I1
tp2299
a(I523
I1
tp2300
a(I3197
I2
tp2301
a(I1803
I1
tp2302
a(I4277
I1
tp2303
a(I408
I1
tp2304
a(I633
I3
tp2305
a(I260
I1
tp2306
a(I4737
I1
tp2307
a(I1202
I1
tp2308
a(I63
I1
tp2309
a(I855
I4
tp2310
a(I1283
I2
tp2311
a(I1740
I1
tp2312
a(I2682
I1
tp2313
a(I3245
I3
tp2314
a(I424
I1
tp2315
a(I4026
I3
tp2316
a(I2150
I1
tp2317
a(I3684
I1
tp2318
a(I3285
I2
tp2319
a(I3144
I3
tp2320
a(I1308
I3
tp2321
a(I4561
I3
tp2322
a(I515
I2
tp2323
a(I3135
I1
tp2324
a(I3576
I1
tp2325
a(I371
I1
tp2326
a(I164
I1
tp2327
a(I4962
I4
tp2328
a(I68
I0
tp2329
a(I3072
I1
tp2330
a(I4813
I1
tp2331
a(I4542
I1
tp2332
a(I2235
I1
tp2333
a(I361
I1
tp2334
a(I2636
I1
tp2335
a(I3057
I1
tp2336
a(I1493
I1
tp2337
a(I4824
I0
tp2338
a(I2974
I2
tp2339
a(I3184
I2
tp2340
a(I144
I1
tp2341
a(I4570
I1
tp2342
a(I4632
I0
tp2343
a(I728
I1
tp2344
a(I2132
I4
tp2345
a(I1437
I5
tp2346
aa(lp2347
(I461
I2
tp2348
a(I3135
I2
tp2349
a(I2974
I3
tp2350
a(I523
I2
tp2351
a(I144
I2
tp2352
a(I4250
I2
tp2353
a(I3057
I2
tp2354
a(I3293
I2
tp2355
a(I63
I2
tp2356
a(I4813
I2
tp2357
a(I672
I2
tp2358
a(I4561
I4
tp2359
a(I4528
I0
tp2360
a(I855
I5
tp2361
a(I515
I3
tp2362
a(I4277
I2
tp2363
a(I4669
I0
tp2364
a(I2310
I3
tp2365
a(I371
I2
tp2366
a(I2288
I0
tp2367
a(I4632
I1
tp2368
a(I3684
I2
tp2369
a(I5028
I2
tp2370
a(I3184
I3
tp2371
a(I3144
I4
tp2372
a(I1234
I0
tp2373
a(I2435
I2
tp2374
a(I3254
I2
tp2375
a(I1394
I3
tp2376
a(I2636
I2
tp2377
a(I361
I2
tp2378
a(I47
I0
tp2379
a(I2608
I3
tp2380
a(I1493
I2
tp2381
a(I720
I2
tp2382
a(I3290
I2
tp2383
a(I2630
I0
tp2384
a(I408
I2
tp2385
a(I1803
I2
tp2386
a(I3234
I2
tp2387
a(I260
I2
tp2388
a(I4570
I2
tp2389
a(I4320
I2
tp2390
a(I1384
I2
tp2391
a(I1740
I2
tp2392
a(I3245
I2
tp2393
a(I424
I2
tp2394
a(I1202
I2
tp2395
a(I649
I2
tp2396
a(I4244
I2
tp2397
a(I4843
I2
tp2398
a(I396
I0
tp2399
a(I101
I1
tp2400
a(I1861
I0
tp2401
a(I4824
I1
tp2402
a(I164
I2
tp2403
a(I19
I1
tp2404
a(I2309
I2
tp2405
a(I3072
I2
tp2406
a(I1445
I3
tp2407
aa(lp2408
(I571
I0
tp2409
a(I1851
I0
tp2410
a(I424
I3
tp2411
a(I1202
I3
tp2412
a(I3116
I0
tp2413
a(I4943
I0
tp2414
a(I1803
I3
tp2415
a(I4528
I1
tp2416
a(I4669
I1
tp2417
a(I4824
I2
tp2418
a(I396
I1
tp2419
a(I3072
I3
tp2420
a(I4628
I0
tp2421
a(I47
I1
tp2422
a(I2435
I3
tp2423
a(I144
I3
tp2424
a(I361
I3
tp2425
a(I4250
I3
tp2426
a(I1339
I0
tp2427
a(I1493
I3
tp2428
a(I3095
I0
tp2429
a(I672
I3
tp2430
a(I4946
I0
tp2431
a(I3245
I3
tp2432
a(I2288
I1
tp2433
a(I19
I2
tp2434
a(I4632
I2
tp2435
a(I3684
I3
tp2436
a(I1861
I1
tp2437
a(I4277
I3
tp2438
a(I101
I2
tp2439
a(I1234
I1
tp2440
a(I2309
I3
tp2441
a(I3739
I0
tp2442
a(I1184
I0
tp2443
a(I2608
I4
tp2444
a(I2147
I0
tp2445
a(I3290
I3
tp2446
a(I523
I3
tp2447
a(I408
I3
tp2448
a(I3057
I3
tp2449
a(I3234
I3
tp2450
a(I1740
I3
tp2451
a(I260
I3
tp2452
a(I202
I0
tp2453
a(I2630
I1
tp2454
a(I2636
I3
tp2455
aa(lp2456
(I1184
I1
tp2457
a(I47
I2
tp2458
a(I1234
I2
tp2459
a(I3684
I4
tp2460
a(I408
I4
tp2461
a(I202
I1
tp2462
a(I3431
I0
tp2463
a(I280
I0
tp2464
a(I4865
I0
tp2465
a(I424
I4
tp2466
a(I396
I2
tp2467
a(I1339
I1
tp2468
a(I3116
I1
tp2469
a(I3998
I0
tp2470
a(I1202
I4
tp2471
a(I4824
I3
tp2472
a(I1851
I1
tp2473
a(I19
I3
tp2474
a(I1861
I2
tp2475
a(I3057
I4
tp2476
a(I101
I3
tp2477
a(I2309
I4
tp2478
a(I3739
I1
tp2479
a(I1803
I4
tp2480
a(I144
I4
tp2481
a(I2883
I0
tp2482
a(I2147
I1
tp2483
a(I4628
I1
tp2484
a(I4943
I1
tp2485
a(I2630
I2
tp2486
a(I4250
I4
tp2487
a(I4528
I2
tp2488
a(I3095
I1
tp2489
a(I769
I0
tp2490
a(I4946
I1
tp2491
a(I571
I1
tp2492
a(I2288
I2
tp2493
a(I672
I4
tp2494
a(I4632
I3
tp2495
a(I4669
I2
tp2496
a(I1006
I0
tp2497
a(I361
I4
tp2498
a(I248
I0
tp2499
aa(lp2500
(I2856
I0
tp2501
a(I4946
I2
tp2502
a(I2288
I3
tp2503
a(I19
I4
tp2504
a(I4632
I4
tp2505
a(I1006
I1
tp2506
a(I248
I1
tp2507
a(I3739
I2
tp2508
a(I1184
I2
tp2509
a(I1861
I3
tp2510
a(I3057
I5
tp2511
a(I2147
I2
tp2512
a(I1234
I3
tp2513
a(I4943
I2
tp2514
a(I1803
I5
tp2515
a(I3684
I5
tp2516
a(I2883
I1
tp2517
a(I408
I5
tp2518
a(I4326
I0
tp2519
a(I3095
I2
tp2520
a(I280
I1
tp2521
a(I571
I2
tp2522
a(I769
I1
tp2523
a(I396
I3
tp2524
a(I202
I2
tp2525
a(I3116
I2
tp2526
a(I3998
I1
tp2527
a(I1339
I2
tp2528
a(I2279
I0
tp2529
a(I4528
I3
tp2530
a(I101
I4
tp2531
a(I4824
I4
tp2532
a(I4669
I3
tp2533
a(I455
I0
tp2534
a(I1851
I2
tp2535
a(I144
I5
tp2536
a(I47
I3
tp2537
a(I913
I0
tp2538
a(I3431
I1
tp2539
a(I4865
I1
tp2540
a(I2630
I3
tp2541
a(I672
I5
tp2542
a(I4628
I2
tp2543
aa(lp2544
(I4329
I0
tp2545
a(I4628
I3
tp2546
a(I455
I1
tp2547
a(I4943
I3
tp2548
a(I4494
I0
tp2549
a(I1851
I3
tp2550
a(I941
I0
tp2551
a(I4865
I2
tp2552
a(I2279
I1
tp2553
a(I4632
I5
tp2554
a(I1339
I3
tp2555
a(I3394
I0
tp2556
a(I2544
I0
tp2557
a(I248
I2
tp2558
a(I1006
I2
tp2559
a(I2856
I1
tp2560
a(I4326
I1
tp2561
a(I1234
I4
tp2562
a(I3933
I0
tp2563
a(I913
I1
tp2564
a(I2786
I0
tp2565
a(I280
I2
tp2566
a(I1788
I0
tp2567
a(I47
I4
tp2568
a(I3116
I3
tp2569
a(I4850
I0
tp2570
a(I3934
I0
tp2571
a(I4528
I4
tp2572
a(I3998
I2
tp2573
a(I19
I5
tp2574
a(I709
I0
tp2575
a(I3739
I3
tp2576
a(I3431
I2
tp2577
aa(lp2578
(I941
I1
tp2579
a(I3934
I1
tp2580
a(I4865
I3
tp2581
a(I4528
I5
tp2582
a(I3998
I3
tp2583
a(I1672
I0
tp2584
a(I838
I0
tp2585
a(I3741
I0
tp2586
a(I3116
I4
tp2587
a(I3242
I0
tp2588
a(I24
I0
tp2589
a(I4597
I0
tp2590
a(I3933
I1
tp2591
a(I2426
I0
tp2592
a(I913
I2
tp2593
a(I1730
I0
tp2594
a(I4494
I1
tp2595
a(I240
I0
tp2596
a(I47
I5
tp2597
a(I1695
I0
tp2598
a(I548
I0
tp2599
a(I681
I0
tp2600
a(I1342
I0
tp2601
a(I2755
I0
tp2602
a(I3953
I0
tp2603
a(I2822
I0
tp2604
a(I3394
I1
tp2605
a(I2544
I1
tp2606
a(I248
I3
tp2607
a(I3739
I4
tp2608
a(I979
I0
tp2609
a(I709
I1
tp2610
a(I455
I2
tp2611
a(I4329
I1
tp2612
a(I3431
I3
tp2613
a(I2856
I2
tp2614
a(I3212
I0
tp2615
a(I1041
I0
tp2616
a(I4840
I0
tp2617
a(I2786
I1
tp2618
a(I4326
I2
tp2619
a(I280
I3
tp2620
a(I2992
I0
tp2621
a(I1788
I1
tp2622
a(I4850
I1
tp2623
a(I4943
I4
tp2624
a(I2980
I0
tp2625
a(I3985
I0
tp2626
a(I2279
I2
tp2627
aa(lp2628
(I2856
I3
tp2629
a(I3934
I2
tp2630
a(I3212
I1
tp2631
a(I4780
I0
tp2632
a(I4840
I1
tp2633
a(I4597
I1
tp2634
a(I280
I4
tp2635
a(I2992
I1
tp2636
a(I1788
I2
tp2637
a(I4382
I0
tp2638
a(I913
I3
tp2639
a(I3933
I2
tp2640
a(I229
I0
tp2641
a(I2786
I2
tp2642
a(I3998
I4
tp2643
a(I1695
I1
tp2644
a(I681
I1
tp2645
a(I4850
I2
tp2646
a(I1672
I1
tp2647
a(I2980
I1
tp2648
a(I838
I1
tp2649
a(I2755
I1
tp2650
a(I3953
I1
tp2651
a(I3116
I5
tp2652
a(I1474
I0
tp2653
a(I2969
I0
tp2654
a(I1372
I0
tp2655
a(I24
I1
tp2656
a(I979
I1
tp2657
a(I709
I2
tp2658
a(I455
I3
tp2659
a(I4137
I0
tp2660
a(I2426
I1
tp2661
a(I2279
I3
tp2662
a(I4329
I2
tp2663
a(I1041
I1
tp2664
a(I4865
I4
tp2665
a(I3985
I1
tp2666
a(I3431
I4
tp2667
a(I1730
I1
tp2668
a(I4494
I2
tp2669
a(I548
I1
tp2670
a(I452
I0
tp2671
a(I240
I1
tp2672
a(I1342
I1
tp2673
a(I2336
I0
tp2674
a(I941
I2
tp2675
a(I1118
I0
tp2676
a(I2822
I1
tp2677
a(I2544
I2
tp2678
a(I248
I4
tp2679
a(I3741
I1
tp2680
a(I3242
I1
tp2681
a(I3394
I2
tp2682
a(I4326
I3
tp2683
a(I822
I0
tp2684
aa(lp2685
(I2336
I1
tp2686
a(I1118
I1
tp2687
a(I681
I2
tp2688
a(I3212
I2
tp2689
a(I2544
I3
tp2690
a(I1342
I2
tp2691
a(I248
I5
tp2692
a(I2755
I2
tp2693
a(I3953
I2
tp2694
a(I979
I2
tp2695
a(I2822
I2
tp2696
a(I3394
I3
tp2697
a(I2969
I1
tp2698
a(I822
I1
tp2699
a(I3985
I2
tp2700
a(I709
I3
tp2701
a(I455
I4
tp2702
a(I4780
I1
tp2703
a(I4137
I1
tp2704
a(I4329
I3
tp2705
a(I280
I5
tp2706
a(I2992
I2
tp2707
a(I1788
I3
tp2708
a(I1041
I2
tp2709
a(I4865
I5
tp2710
a(I3431
I5
tp2711
a(I2786
I3
tp2712
a(I4014
I0
tp2713
a(I3998
I5
tp2714
a(I3242
I2
tp2715
a(I3741
I2
tp2716
a(I2856
I4
tp2717
a(I4557
I0
tp2718
a(I3620
I0
tp2719
a(I4382
I1
tp2720
a(I4850
I3
tp2721
a(I1672
I2
tp2722
a(I941
I3
tp2723
a(I3934
I3
tp2724
a(I3933
I3
tp2725
a(I1474
I1
tp2726
a(I2279
I4
tp2727
a(I4403
I0
tp2728
a(I838
I2
tp2729
a(I1372
I1
tp2730
a(I24
I2
tp2731
a(I229
I1
tp2732
a(I856
I0
tp2733
a(I913
I4
tp2734
a(I4840
I2
tp2735
a(I3147
I0
tp2736
a(I4597
I2
tp2737
a(I240
I2
tp2738
a(I2426
I2
tp2739
a(I4326
I4
tp2740
a(I1695
I2
tp2741
a(I1730
I2
tp2742
a(I4494
I3
tp2743
a(I548
I2
tp2744
a(I2980
I2
tp2745
a(I452
I1
tp2746
aa(lp2747
(I709
I4
tp2748
a(I2536
I0
tp2749
a(I4780
I2
tp2750
a(I4137
I2
tp2751
a(I4494
I4
tp2752
a(I240
I3
tp2753
a(I2426
I3
tp2754
a(I2256
I0
tp2755
a(I548
I3
tp2756
a(I816
I0
tp2757
a(I452
I2
tp2758
a(I65
I0
tp2759
a(I4403
I1
tp2760
a(I2336
I2
tp2761
a(I4557
I1
tp2762
a(I2544
I4
tp2763
a(I1342
I3
tp2764
a(I3620
I1
tp2765
a(I2257
I0
tp2766
a(I1118
I2
tp2767
a(I655
I0
tp2768
a(I4925
I0
tp2769
a(I2822
I3
tp2770
a(I2279
I5
tp2771
a(I1996
I0
tp2772
a(I3741
I3
tp2773
a(I3212
I3
tp2774
a(I913
I5
tp2775
a(I2857
I0
tp2776
a(I822
I2
tp2777
a(I2992
I3
tp2778
a(I2525
I0
tp2779
a(I395
I0
tp2780
a(I856
I1
tp2781
a(I4014
I1
tp2782
a(I3933
I4
tp2783
a(I229
I2
tp2784
a(I1672
I3
tp2785
a(I4382
I2
tp2786
a(I838
I3
tp2787
a(I1372
I2
tp2788
a(I24
I3
tp2789
a(I3953
I3
tp2790
a(I4329
I4
tp2791
a(I1474
I2
tp2792
a(I2969
I2
tp2793
a(I781
I0
tp2794
a(I3147
I1
tp2795
aa(lp2796
(I838
I4
tp2797
a(I1513
I0
tp2798
a(I1191
I0
tp2799
a(I3797
I0
tp2800
a(I4382
I3
tp2801
a(I2257
I1
tp2802
a(I1372
I3
tp2803
a(I655
I1
tp2804
a(I816
I1
tp2805
a(I3106
I0
tp2806
a(I4535
I0
tp2807
a(I856
I2
tp2808
a(I4002
I0
tp2809
a(I4557
I2
tp2810
a(I4504
I0
tp2811
a(I2857
I1
tp2812
a(I240
I4
tp2813
a(I1617
I0
tp2814
a(I4751
I0
tp2815
a(I4403
I2
tp2816
a(I2256
I1
tp2817
a(I2525
I1
tp2818
a(I2536
I1
tp2819
a(I395
I1
tp2820
a(I3159
I0
tp2821
a(I452
I3
tp2822
a(I2336
I3
tp2823
a(I3384
I0
tp2824
a(I3933
I5
tp2825
a(I3953
I4
tp2826
a(I229
I3
tp2827
a(I1996
I1
tp2828
a(I1118
I3
tp2829
a(I3147
I2
tp2830
a(I3662
I0
tp2831
a(I24
I4
tp2832
a(I3007
I0
tp2833
a(I4780
I3
tp2834
a(I781
I1
tp2835
a(I2992
I4
tp2836
a(I4925
I1
tp2837
a(I2137
I0
tp2838
a(I3212
I4
tp2839
a(I3620
I2
tp2840
a(I4014
I2
tp2841
a(I65
I1
tp2842
a(I1672
I4
tp2843
aa(lp2844
(I2992
I5
tp2845
a(I2857
I2
tp2846
a(I395
I2
tp2847
a(I3159
I1
tp2848
a(I1617
I1
tp2849
a(I2790
I0
tp2850
a(I4179
I0
tp2851
a(I2525
I2
tp2852
a(I4780
I4
tp2853
a(I439
I0
tp2854
a(I3147
I3
tp2855
a(I3620
I3
tp2856
a(I4382
I4
tp2857
a(I4014
I3
tp2858
a(I781
I2
tp2859
a(I920
I0
tp2860
a(I1672
I5
tp2861
a(I1494
I0
tp2862
a(I2334
I0
tp2863
a(I24
I5
tp2864
a(I816
I2
tp2865
a(I3106
I1
tp2866
a(I856
I3
tp2867
a(I4208
I0
tp2868
a(I558
I0
tp2869
a(I4504
I1
tp2870
a(I824
I0
tp2871
a(I3231
I0
tp2872
a(I4429
I0
tp2873
a(I3007
I1
tp2874
a(I2171
I0
tp2875
a(I3410
I0
tp2876
a(I240
I5
tp2877
a(I4917
I0
tp2878
a(I2256
I2
tp2879
a(I4066
I0
tp2880
a(I5045
I0
tp2881
a(I4983
I0
tp2882
a(I2137
I1
tp2883
a(I4554
I0
tp2884
a(I3384
I1
tp2885
a(I3073
I0
tp2886
a(I4751
I1
tp2887
a(I2536
I2
tp2888
a(I65
I2
tp2889
a(I1996
I2
tp2890
a(I1513
I1
tp2891
a(I655
I2
tp2892
a(I1191
I1
tp2893
a(I3797
I1
tp2894
a(I872
I0
tp2895
a(I975
I0
tp2896
a(I4002
I1
tp2897
a(I2257
I2
tp2898
a(I3662
I1
tp2899
a(I4557
I3
tp2900
a(I4925
I2
tp2901
a(I4535
I1
tp2902
a(I4595
I0
tp2903
a(I2250
I0
tp2904
a(I4897
I0
tp2905
a(I4403
I3
tp2906
aa(lp2907
(I3147
I4
tp2908
a(I3007
I2
tp2909
a(I4595
I1
tp2910
a(I872
I1
tp2911
a(I4002
I2
tp2912
a(I2536
I3
tp2913
a(I4925
I3
tp2914
a(I4066
I1
tp2915
a(I2250
I1
tp2916
a(I5045
I1
tp2917
a(I3662
I2
tp2918
a(I4554
I1
tp2919
a(I3231
I1
tp2920
a(I2992
I6
tp2921
a(I2171
I1
tp2922
a(I781
I3
tp2923
a(I4014
I4
tp2924
a(I4403
I4
tp2925
a(I4917
I1
tp2926
a(I4382
I5
tp2927
a(I655
I3
tp2928
a(I920
I1
tp2929
a(I1494
I1
tp2930
a(I4179
I1
tp2931
a(I2790
I1
tp2932
a(I1191
I2
tp2933
a(I2334
I1
tp2934
a(I65
I3
tp2935
a(I3620
I4
tp2936
a(I4429
I1
tp2937
a(I1513
I2
tp2938
a(I24
I6
tp2939
a(I816
I3
tp2940
a(I2525
I3
tp2941
a(I3797
I2
tp2942
a(I4535
I2
tp2943
a(I856
I4
tp2944
a(I4208
I1
tp2945
a(I2137
I2
tp2946
a(I558
I1
tp2947
a(I2257
I3
tp2948
a(I4504
I2
tp2949
a(I3106
I2
tp2950
a(I824
I1
tp2951
a(I975
I1
tp2952
a(I4897
I1
tp2953
a(I3410
I1
tp2954
a(I240
I6
tp2955
a(I4983
I1
tp2956
a(I4751
I2
tp2957
a(I4557
I4
tp2958
a(I2256
I3
tp2959
a(I2857
I3
tp2960
a(I395
I3
tp2961
a(I3159
I2
tp2962
a(I3073
I1
tp2963
a(I1617
I2
tp2964
a(I3384
I2
tp2965
a(I439
I1
tp2966
a(I1996
I3
tp2967
aa(lp2968
(I4429
I2
tp2969
a(I4983
I2
tp2970
a(I2256
I4
tp2971
a(I4917
I2
tp2972
a(I781
I4
tp2973
a(I65
I4
tp2974
a(I3662
I3
tp2975
a(I3384
I3
tp2976
a(I4208
I2
tp2977
a(I742
I0
tp2978
a(I869
I0
tp2979
a(I4066
I2
tp2980
a(I2707
I0
tp2981
a(I2137
I3
tp2982
a(I2257
I4
tp2983
a(I3073
I2
tp2984
a(I1191
I3
tp2985
a(I5045
I2
tp2986
a(I872
I2
tp2987
a(I975
I2
tp2988
a(I1513
I3
tp2989
a(I3410
I2
tp2990
a(I4557
I5
tp2991
a(I3797
I3
tp2992
a(I4535
I3
tp2993
a(I4595
I2
tp2994
a(I1996
I4
tp2995
a(I4823
I0
tp2996
a(I2857
I4
tp2997
a(I2936
I0
tp2998
a(I655
I4
tp2999
a(I4002
I3
tp3000
a(I4925
I4
tp3001
a(I2536
I4
tp3002
a(I2250
I2
tp3003
a(I4897
I2
tp3004
a(I395
I4
tp3005
a(I4014
I5
tp3006
a(I4751
I3
tp3007
a(I439
I2
tp3008
a(I3159
I3
tp3009
a(I1617
I3
tp3010
a(I920
I2
tp3011
a(I2003
I0
tp3012
a(I2525
I4
tp3013
a(I4403
I5
tp3014
a(I237
I0
tp3015
a(I4382
I6
tp3016
a(I1494
I2
tp3017
a(I24
I7
tp3018
a(I816
I4
tp3019
a(I3620
I5
tp3020
a(I2334
I2
tp3021
a(I856
I5
tp3022
a(I4179
I2
tp3023
a(I4504
I3
tp3024
a(I2790
I2
tp3025
a(I3106
I3
tp3026
a(I824
I2
tp3027
a(I3231
I2
tp3028
a(I3147
I5
tp3029
a(I3007
I3
tp3030
a(I2171
I2
tp3031
a(I558
I2
tp3032
a(I4554
I2
tp3033
a(I240
I7
tp3034
aa(lp3035
(I1494
I3
tp3036
a(I2257
I5
tp3037
a(I3073
I3
tp3038
a(I4002
I4
tp3039
a(I2334
I3
tp3040
a(I975
I3
tp3041
a(I4208
I3
tp3042
a(I4504
I4
tp3043
a(I2790
I3
tp3044
a(I2936
I1
tp3045
a(I824
I3
tp3046
a(I4595
I3
tp3047
a(I4823
I1
tp3048
a(I558
I3
tp3049
a(I655
I5
tp3050
a(I3106
I4
tp3051
a(I1617
I4
tp3052
a(I3410
I3
tp3053
a(I3384
I4
tp3054
a(I439
I3
tp3055
a(I4751
I4
tp3056
a(I2003
I1
tp3057
a(I2525
I5
tp3058
a(I3147
I6
tp3059
a(I237
I1
tp3060
a(I872
I3
tp3061
a(I1152
I0
tp3062
a(I4082
I0
tp3063
a(I742
I1
tp3064
a(I1996
I5
tp3065
a(I4557
I6
tp3066
a(I3231
I3
tp3067
a(I5045
I3
tp3068
a(I2171
I3
tp3069
a(I1191
I4
tp3070
a(I4403
I6
tp3071
a(I4429
I3
tp3072
a(I3007
I4
tp3073
a(I3797
I4
tp3074
a(I4983
I3
tp3075
a(I869
I1
tp3076
a(I2707
I1
tp3077
a(I2536
I5
tp3078
aa(lp3079
(I1617
I5
tp3080
a(I3613
I0
tp3081
a(I1494
I4
tp3082
a(I2003
I2
tp3083
a(I2334
I4
tp3084
a(I4751
I5
tp3085
a(I439
I4
tp3086
a(I237
I2
tp3087
a(I4459
I0
tp3088
a(I707
I0
tp3089
a(I742
I2
tp3090
a(I2171
I4
tp3091
a(I2936
I2
tp3092
a(I696
I0
tp3093
a(I1326
I0
tp3094
a(I4955
I0
tp3095
a(I3231
I4
tp3096
a(I2095
I0
tp3097
a(I4429
I4
tp3098
a(I3007
I5
tp3099
a(I3384
I5
tp3100
a(I3073
I4
tp3101
a(I2707
I2
tp3102
a(I3856
I0
tp3103
a(I869
I2
tp3104
a(I22
I0
tp3105
a(I1604
I0
tp3106
a(I1152
I1
tp3107
a(I2257
I6
tp3108
a(I4823
I2
tp3109
a(I1191
I5
tp3110
a(I932
I0
tp3111
a(I4082
I1
tp3112
aa(lp3113
(I402
I0
tp3114
a(I4955
I1
tp3115
a(I1831
I0
tp3116
a(I3413
I0
tp3117
a(I237
I3
tp3118
a(I2932
I0
tp3119
a(I742
I3
tp3120
a(I3874
I0
tp3121
a(I4459
I1
tp3122
a(I1725
I0
tp3123
a(I357
I0
tp3124
a(I2171
I5
tp3125
a(I3050
I0
tp3126
a(I2861
I0
tp3127
a(I4082
I2
tp3128
a(I707
I1
tp3129
a(I4429
I5
tp3130
a(I1469
I0
tp3131
a(I2095
I1
tp3132
a(I2707
I3
tp3133
a(I2334
I5
tp3134
a(I2698
I0
tp3135
a(I869
I3
tp3136
a(I3369
I0
tp3137
a(I3523
I0
tp3138
a(I907
I0
tp3139
a(I4823
I3
tp3140
a(I2936
I3
tp3141
a(I1271
I0
tp3142
a(I2894
I0
tp3143
a(I696
I1
tp3144
a(I932
I1
tp3145
a(I3355
I0
tp3146
a(I1617
I6
tp3147
a(I524
I0
tp3148
a(I4703
I0
tp3149
a(I1326
I1
tp3150
a(I3453
I0
tp3151
a(I2870
I0
tp3152
a(I3856
I1
tp3153
a(I3613
I1
tp3154
a(I2003
I3
tp3155
a(I22
I1
tp3156
a(I1604
I1
tp3157
a(I1152
I2
tp3158
a(I4964
I0
tp3159
aa(lp3160
(I2861
I1
tp3161
a(I707
I2
tp3162
a(I524
I1
tp3163
a(I2095
I2
tp3164
a(I4744
I0
tp3165
a(I2707
I4
tp3166
a(I3856
I2
tp3167
a(I1908
I0
tp3168
a(I1469
I1
tp3169
a(I3874
I1
tp3170
a(I1084
I0
tp3171
a(I1604
I2
tp3172
a(I1152
I3
tp3173
a(I4964
I1
tp3174
a(I2870
I1
tp3175
a(I402
I1
tp3176
a(I742
I4
tp3177
a(I869
I4
tp3178
a(I22
I2
tp3179
a(I2338
I0
tp3180
a(I3369
I1
tp3181
a(I762
I0
tp3182
a(I3523
I1
tp3183
a(I2932
I1
tp3184
a(I1254
I0
tp3185
a(I3261
I0
tp3186
a(I107
I0
tp3187
a(I907
I1
tp3188
a(I45
I0
tp3189
a(I3050
I1
tp3190
a(I1271
I1
tp3191
a(I2360
I0
tp3192
a(I1014
I0
tp3193
a(I4823
I4
tp3194
a(I4459
I2
tp3195
a(I3355
I1
tp3196
a(I4082
I3
tp3197
a(I4848
I0
tp3198
a(I835
I0
tp3199
a(I4849
I0
tp3200
a(I2003
I4
tp3201
a(I3453
I1
tp3202
a(I352
I0
tp3203
a(I3613
I2
tp3204
a(I2698
I1
tp3205
a(I932
I2
tp3206
a(I1281
I0
tp3207
a(I4955
I2
tp3208
a(I4703
I1
tp3209
a(I4437
I0
tp3210
a(I1287
I0
tp3211
a(I4149
I0
tp3212
a(I1725
I1
tp3213
a(I3413
I1
tp3214
a(I237
I4
tp3215
a(I1831
I1
tp3216
a(I3791
I0
tp3217
a(I934
I0
tp3218
a(I2171
I6
tp3219
a(I2936
I4
tp3220
a(I2894
I1
tp3221
a(I696
I2
tp3222
a(I3740
I0
tp3223
a(I357
I1
tp3224
a(I1569
I0
tp3225
a(I1326
I2
tp3226
a(I735
I0
tp3227
a(I2449
I0
tp3228
a(I2795
I0
tp3229
aa(lp3230
(I45
I1
tp3231
a(I3523
I2
tp3232
a(I869
I5
tp3233
a(I3369
I2
tp3234
a(I907
I2
tp3235
a(I1271
I2
tp3236
a(I3261
I1
tp3237
a(I696
I3
tp3238
a(I107
I1
tp3239
a(I3740
I1
tp3240
a(I932
I3
tp3241
a(I1326
I3
tp3242
a(I3355
I2
tp3243
a(I2894
I2
tp3244
a(I3453
I2
tp3245
a(I524
I2
tp3246
a(I4823
I5
tp3247
a(I1287
I1
tp3248
a(I4459
I3
tp3249
a(I4744
I1
tp3250
a(I3856
I3
tp3251
a(I835
I1
tp3252
a(I1908
I1
tp3253
a(I4849
I1
tp3254
a(I2338
I1
tp3255
a(I4964
I2
tp3256
a(I1084
I1
tp3257
a(I1604
I3
tp3258
a(I1152
I4
tp3259
a(I1725
I2
tp3260
a(I3050
I2
tp3261
a(I934
I1
tp3262
a(I742
I5
tp3263
a(I22
I3
tp3264
a(I2870
I2
tp3265
a(I4703
I2
tp3266
a(I762
I1
tp3267
a(I402
I2
tp3268
a(I2932
I2
tp3269
a(I1254
I1
tp3270
a(I3613
I3
tp3271
a(I3413
I2
tp3272
a(I237
I5
tp3273
a(I2449
I1
tp3274
a(I4848
I1
tp3275
a(I4955
I3
tp3276
a(I1271
I0
tp3277
a(I3874
I2
tp3278
a(I2360
I1
tp3279
a(I1014
I1
tp3280
a(I3791
I1
tp3281
a(I357
I2
tp3282
a(I1569
I1
tp3283
a(I735
I1
tp3284
a(I2861
I2
tp3285
a(I707
I3
tp3286
a(I2095
I3
tp3287
a(I352
I1
tp3288
a(I4082
I4
tp3289
a(I1281
I1
tp3290
a(I2795
I1
tp3291
a(I1469
I2
tp3292
a(I1831
I2
tp3293
a(I4149
I1
tp3294
a(I4437
I1
tp3295
a(I2698
I2
tp3296
aa(lp3297
(I835
I2
tp3298
a(I1014
I2
tp3299
a(I4082
I5
tp3300
a(I1725
I3
tp3301
a(I2338
I2
tp3302
a(I4848
I2
tp3303
a(I4849
I2
tp3304
a(I4955
I4
tp3305
a(I5006
I0
tp3306
a(I3453
I3
tp3307
a(I4703
I3
tp3308
a(I3613
I4
tp3309
a(I3413
I3
tp3310
a(I2698
I3
tp3311
a(I1287
I2
tp3312
a(I1281
I2
tp3313
a(I1831
I3
tp3314
a(I3369
I3
tp3315
a(I4459
I4
tp3316
a(I3791
I2
tp3317
a(I1326
I4
tp3318
a(I3856
I4
tp3319
a(I4149
I2
tp3320
a(I22
I4
tp3321
a(I696
I4
tp3322
a(I2449
I2
tp3323
a(I3740
I2
tp3324
a(I934
I2
tp3325
a(I735
I2
tp3326
a(I1271
I1
tp3327
a(I2894
I3
tp3328
a(I3874
I3
tp3329
a(I707
I4
tp3330
a(I524
I3
tp3331
a(I357
I3
tp3332
a(I1569
I2
tp3333
a(I3282
I0
tp3334
a(I231
I0
tp3335
a(I4744
I2
tp3336
a(I2861
I3
tp3337
a(I1908
I2
tp3338
a(I932
I4
tp3339
a(I4437
I2
tp3340
a(I3355
I3
tp3341
a(I1084
I2
tp3342
a(I2139
I0
tp3343
a(I1152
I5
tp3344
a(I4964
I3
tp3345
a(I1469
I3
tp3346
a(I2095
I4
tp3347
a(I402
I3
tp3348
a(I352
I2
tp3349
a(I2870
I3
tp3350
a(I45
I2
tp3351
a(I3523
I3
tp3352
a(I2932
I3
tp3353
a(I742
I6
tp3354
a(I869
I6
tp3355
a(I107
I2
tp3356
a(I1604
I4
tp3357
a(I907
I3
tp3358
a(I3692
I0
tp3359
a(I762
I2
tp3360
a(I1271
I3
tp3361
a(I1254
I2
tp3362
a(I3261
I2
tp3363
a(I2360
I2
tp3364
a(I2552
I0
tp3365
a(I3050
I3
tp3366
a(I2795
I2
tp3367
aa(lp3368
(I1287
I3
tp3369
a(I1281
I3
tp3370
a(I4459
I5
tp3371
a(I4703
I4
tp3372
a(I3791
I3
tp3373
a(I402
I4
tp3374
a(I1271
I2
tp3375
a(I4149
I3
tp3376
a(I1254
I3
tp3377
a(I2139
I1
tp3378
a(I1084
I3
tp3379
a(I2552
I1
tp3380
a(I735
I3
tp3381
a(I2932
I4
tp3382
a(I1014
I3
tp3383
a(I357
I4
tp3384
a(I3050
I4
tp3385
a(I231
I1
tp3386
a(I2861
I4
tp3387
a(I168
I0
tp3388
a(I4437
I3
tp3389
a(I5006
I1
tp3390
a(I4849
I3
tp3391
a(I2839
I0
tp3392
a(I1469
I4
tp3393
a(I2095
I5
tp3394
a(I3523
I4
tp3395
a(I907
I4
tp3396
a(I2698
I4
tp3397
a(I1326
I5
tp3398
a(I45
I3
tp3399
a(I2894
I4
tp3400
a(I696
I5
tp3401
a(I107
I3
tp3402
a(I3692
I1
tp3403
a(I3282
I1
tp3404
a(I1271
I4
tp3405
a(I4744
I3
tp3406
a(I3856
I5
tp3407
a(I22
I5
tp3408
a(I2649
I0
tp3409
a(I524
I4
tp3410
a(I2338
I3
tp3411
a(I4955
I5
tp3412
a(I654
I0
tp3413
aa(lp3414
(I3692
I2
tp3415
a(I357
I5
tp3416
a(I3282
I2
tp3417
a(I3881
I0
tp3418
a(I1468
I0
tp3419
a(I2338
I4
tp3420
a(I1254
I4
tp3421
a(I1084
I4
tp3422
a(I907
I5
tp3423
a(I45
I4
tp3424
a(I1469
I5
tp3425
a(I654
I1
tp3426
a(I2552
I2
tp3427
a(I1618
I0
tp3428
a(I3050
I5
tp3429
a(I1271
I5
tp3430
a(I168
I1
tp3431
a(I1281
I4
tp3432
a(I2649
I1
tp3433
a(I2839
I1
tp3434
a(I2139
I2
tp3435
a(I5006
I2
tp3436
a(I4082
I0
tp3437
a(I2698
I5
tp3438
a(I2894
I5
tp3439
a(I4703
I5
tp3440
a(I1287
I4
tp3441
a(I1271
I3
tp3442
a(I325
I0
tp3443
a(I231
I2
tp3444
a(I4744
I4
tp3445
aa(lp3446
(I1469
I6
tp3447
a(I3986
I0
tp3448
a(I2921
I0
tp3449
a(I1663
I0
tp3450
a(I45
I5
tp3451
a(I1271
I6
tp3452
a(I4744
I5
tp3453
a(I3692
I3
tp3454
a(I3282
I3
tp3455
a(I3881
I1
tp3456
a(I3573
I0
tp3457
a(I3066
I0
tp3458
a(I2839
I2
tp3459
a(I1468
I1
tp3460
a(I3246
I0
tp3461
a(I2649
I2
tp3462
a(I2139
I3
tp3463
a(I1254
I5
tp3464
a(I2552
I3
tp3465
a(I1287
I5
tp3466
a(I325
I1
tp3467
a(I654
I2
tp3468
a(I4159
I0
tp3469
a(I22
I0
tp3470
a(I1618
I1
tp3471
a(I1271
I4
tp3472
a(I231
I3
tp3473
a(I168
I2
tp3474
a(I3856
I0
tp3475
a(I4082
I1
tp3476
a(I4549
I0
tp3477
a(I5006
I3
tp3478
a(I907
I6
tp3479
aa(lp3480
(I3387
I0
tp3481
a(I168
I3
tp3482
a(I1618
I2
tp3483
a(I3881
I2
tp3484
a(I3573
I1
tp3485
a(I2440
I0
tp3486
a(I3229
I0
tp3487
a(I2839
I3
tp3488
a(I2139
I4
tp3489
a(I526
I0
tp3490
a(I674
I0
tp3491
a(I3946
I0
tp3492
a(I2649
I3
tp3493
a(I1581
I0
tp3494
a(I3856
I1
tp3495
a(I4082
I2
tp3496
a(I4720
I0
tp3497
a(I3986
I1
tp3498
a(I3292
I0
tp3499
a(I325
I2
tp3500
a(I4159
I1
tp3501
a(I1271
I5
tp3502
a(I3066
I1
tp3503
a(I2924
I0
tp3504
a(I3651
I0
tp3505
a(I1468
I2
tp3506
a(I861
I0
tp3507
a(I231
I4
tp3508
a(I2914
I0
tp3509
a(I3246
I1
tp3510
a(I3692
I4
tp3511
a(I1271
I0
tp3512
a(I2478
I0
tp3513
a(I4549
I1
tp3514
a(I3847
I0
tp3515
a(I2921
I1
tp3516
a(I1254
I6
tp3517
a(I2975
I0
tp3518
a(I524
I0
tp3519
a(I3453
I0
tp3520
a(I2552
I4
tp3521
a(I45
I6
tp3522
a(I654
I3
tp3523
a(I22
I1
tp3524
a(I1663
I1
tp3525
a(I3918
I0
tp3526
aa(lp3527
(I2839
I4
tp3528
a(I1581
I1
tp3529
a(I524
I1
tp3530
a(I654
I4
tp3531
a(I2552
I5
tp3532
a(I3856
I2
tp3533
a(I2640
I0
tp3534
a(I1468
I3
tp3535
a(I4159
I2
tp3536
a(I1271
I6
tp3537
a(I325
I3
tp3538
a(I22
I2
tp3539
a(I1618
I3
tp3540
a(I2178
I0
tp3541
a(I2440
I1
tp3542
a(I3651
I1
tp3543
a(I1625
I0
tp3544
a(I674
I1
tp3545
a(I2975
I1
tp3546
a(I861
I1
tp3547
a(I526
I1
tp3548
a(I3946
I1
tp3549
a(I1271
I1
tp3550
a(I168
I4
tp3551
a(I4549
I2
tp3552
a(I978
I0
tp3553
a(I4082
I3
tp3554
a(I3986
I2
tp3555
a(I2921
I2
tp3556
a(I4720
I1
tp3557
a(I3453
I1
tp3558
a(I2478
I1
tp3559
a(I3292
I1
tp3560
a(I1663
I2
tp3561
a(I3387
I1
tp3562
a(I2924
I1
tp3563
a(I2649
I4
tp3564
a(I3298
I0
tp3565
a(I3881
I3
tp3566
a(I3573
I2
tp3567
a(I1593
I0
tp3568
a(I2914
I1
tp3569
a(I3066
I2
tp3570
a(I3692
I5
tp3571
a(I3229
I1
tp3572
a(I3918
I1
tp3573
a(I1100
I0
tp3574
a(I3847
I1
tp3575
a(I2649
I0
tp3576
a(I3246
I2
tp3577
a(I2532
I0
tp3578
aa(lp3579
(I2924
I2
tp3580
a(I3651
I2
tp3581
a(I167
I0
tp3582
a(I2737
I0
tp3583
a(I3066
I3
tp3584
a(I1271
I2
tp3585
a(I4720
I2
tp3586
a(I861
I2
tp3587
a(I4605
I0
tp3588
a(I2277
I0
tp3589
a(I2914
I2
tp3590
a(I3246
I3
tp3591
a(I3918
I2
tp3592
a(I2532
I1
tp3593
a(I3847
I2
tp3594
a(I4549
I3
tp3595
a(I524
I2
tp3596
a(I1468
I4
tp3597
a(I3856
I3
tp3598
a(I2921
I3
tp3599
a(I2640
I1
tp3600
a(I706
I0
tp3601
a(I3453
I2
tp3602
a(I1593
I1
tp3603
a(I4828
I0
tp3604
a(I1663
I3
tp3605
a(I2657
I0
tp3606
a(I168
I5
tp3607
a(I4429
I0
tp3608
a(I22
I3
tp3609
a(I4434
I0
tp3610
a(I695
I0
tp3611
a(I1100
I1
tp3612
a(I2440
I2
tp3613
a(I2837
I0
tp3614
a(I2649
I5
tp3615
a(I3573
I3
tp3616
a(I600
I0
tp3617
a(I3229
I2
tp3618
a(I1625
I1
tp3619
a(I674
I2
tp3620
a(I3986
I3
tp3621
a(I526
I2
tp3622
a(I3387
I2
tp3623
a(I978
I1
tp3624
a(I3946
I2
tp3625
a(I2839
I5
tp3626
a(I1581
I2
tp3627
a(I4082
I4
tp3628
a(I3298
I1
tp3629
a(I2178
I1
tp3630
a(I3292
I2
tp3631
a(I2975
I2
tp3632
a(I4159
I3
tp3633
a(I2478
I2
tp3634
a(I2649
I1
tp3635
aa(lp3636
(I3847
I3
tp3637
a(I4605
I1
tp3638
a(I978
I2
tp3639
a(I4082
I5
tp3640
a(I3298
I2
tp3641
a(I1593
I2
tp3642
a(I4816
I0
tp3643
a(I3453
I3
tp3644
a(I2478
I3
tp3645
a(I600
I1
tp3646
a(I2657
I1
tp3647
a(I2924
I3
tp3648
a(I4429
I1
tp3649
a(I4489
I0
tp3650
a(I3573
I0
tp3651
a(I3246
I4
tp3652
a(I3856
I4
tp3653
a(I3387
I3
tp3654
a(I3573
I4
tp3655
a(I2914
I3
tp3656
a(I4333
I0
tp3657
a(I2178
I2
tp3658
a(I3918
I3
tp3659
a(I2532
I2
tp3660
a(I4720
I3
tp3661
a(I524
I3
tp3662
a(I1468
I5
tp3663
a(I1625
I2
tp3664
a(I1581
I3
tp3665
a(I4337
I0
tp3666
a(I695
I1
tp3667
a(I2640
I2
tp3668
a(I706
I1
tp3669
a(I1030
I0
tp3670
a(I22
I4
tp3671
a(I4828
I1
tp3672
a(I2837
I1
tp3673
a(I2975
I3
tp3674
a(I3986
I0
tp3675
a(I4434
I1
tp3676
a(I1100
I2
tp3677
a(I2440
I3
tp3678
a(I2649
I2
tp3679
a(I2439
I0
tp3680
a(I167
I1
tp3681
a(I2737
I1
tp3682
a(I1271
I3
tp3683
a(I3417
I0
tp3684
a(I674
I3
tp3685
a(I2921
I4
tp3686
a(I861
I3
tp3687
a(I526
I3
tp3688
a(I2277
I1
tp3689
a(I3946
I3
tp3690
a(I904
I0
tp3691
aa(lp3692
(I2657
I2
tp3693
a(I3847
I0
tp3694
a(I4201
I0
tp3695
a(I4429
I2
tp3696
a(I4489
I1
tp3697
a(I4434
I2
tp3698
a(I2906
I0
tp3699
a(I2837
I2
tp3700
a(I3573
I5
tp3701
a(I490
I0
tp3702
a(I1625
I3
tp3703
a(I2093
I0
tp3704
a(I2649
I3
tp3705
a(I600
I2
tp3706
a(I1566
I0
tp3707
a(I904
I1
tp3708
a(I1581
I4
tp3709
a(I4337
I1
tp3710
a(I4816
I1
tp3711
a(I3298
I3
tp3712
a(I3885
I0
tp3713
a(I3573
I1
tp3714
a(I2775
I0
tp3715
a(I167
I2
tp3716
a(I4333
I1
tp3717
a(I2439
I1
tp3718
a(I2586
I0
tp3719
a(I4209
I0
tp3720
a(I1926
I0
tp3721
a(I695
I2
tp3722
a(I2737
I2
tp3723
a(I3417
I1
tp3724
a(I2532
I3
tp3725
a(I978
I3
tp3726
a(I861
I4
tp3727
a(I2277
I2
tp3728
a(I1271
I4
tp3729
a(I3856
I5
tp3730
a(I3986
I1
tp3731
a(I4323
I0
tp3732
a(I2640
I3
tp3733
a(I22
I5
tp3734
a(I4828
I2
tp3735
a(I524
I4
tp3736
a(I3387
I4
tp3737
a(I706
I2
tp3738
a(I3187
I0
tp3739
a(I4605
I2
tp3740
a(I1593
I3
tp3741
a(I1030
I1
tp3742
a(I1100
I3
tp3743
a(I2440
I4
tp3744
aa(lp3745
(I2093
I1
tp3746
a(I2640
I4
tp3747
a(I2639
I0
tp3748
a(I4230
I0
tp3749
a(I2532
I4
tp3750
a(I1581
I5
tp3751
a(I4828
I3
tp3752
a(I4337
I2
tp3753
a(I1030
I2
tp3754
a(I706
I3
tp3755
a(I2775
I1
tp3756
a(I2440
I5
tp3757
a(I2518
I0
tp3758
a(I2439
I2
tp3759
a(I388
I0
tp3760
a(I167
I3
tp3761
a(I4434
I3
tp3762
a(I2906
I1
tp3763
a(I1196
I0
tp3764
a(I2748
I0
tp3765
a(I4209
I1
tp3766
a(I0
I0
tp3767
a(I600
I3
tp3768
a(I1100
I4
tp3769
a(I2605
I0
tp3770
a(I490
I1
tp3771
a(I3417
I2
tp3772
a(I2108
I0
tp3773
a(I1566
I1
tp3774
a(I1271
I5
tp3775
a(I904
I2
tp3776
a(I661
I0
tp3777
a(I3986
I2
tp3778
a(I4323
I1
tp3779
a(I4816
I2
tp3780
a(I978
I4
tp3781
a(I1742
I0
tp3782
a(I1482
I0
tp3783
a(I4333
I2
tp3784
a(I3187
I1
tp3785
a(I2586
I1
tp3786
a(I4201
I1
tp3787
a(I2737
I3
tp3788
a(I2657
I3
tp3789
a(I1625
I4
tp3790
a(I2649
I4
tp3791
a(I4429
I3
tp3792
a(I4489
I2
tp3793
a(I1926
I1
tp3794
a(I3573
I2
tp3795
a(I2837
I3
tp3796
a(I4605
I3
tp3797
a(I5040
I0
tp3798
a(I3885
I1
tp3799
a(I3847
I1
tp3800
a(I1738
I0
tp3801
aa(lp3802
(I2605
I1
tp3803
a(I1566
I2
tp3804
a(I1482
I1
tp3805
a(I4333
I3
tp3806
a(I1137
I0
tp3807
a(I2586
I2
tp3808
a(I4209
I2
tp3809
a(I1926
I2
tp3810
a(I1738
I1
tp3811
a(I2639
I1
tp3812
a(I1271
I6
tp3813
a(I3847
I2
tp3814
a(I1387
I0
tp3815
a(I4323
I2
tp3816
a(I1196
I1
tp3817
a(I3404
I0
tp3818
a(I2748
I1
tp3819
a(I661
I1
tp3820
a(I2585
I0
tp3821
a(I1030
I3
tp3822
a(I3187
I2
tp3823
a(I2108
I1
tp3824
a(I410
I0
tp3825
a(I4311
I0
tp3826
a(I2518
I1
tp3827
a(I388
I1
tp3828
a(I706
I4
tp3829
a(I4635
I0
tp3830
a(I2906
I2
tp3831
a(I4201
I2
tp3832
a(I2649
I5
tp3833
a(I4429
I4
tp3834
a(I4489
I3
tp3835
a(I3573
I3
tp3836
a(I1100
I5
tp3837
a(I3986
I3
tp3838
a(I600
I4
tp3839
a(I490
I2
tp3840
a(I0
I1
tp3841
a(I5040
I1
tp3842
a(I904
I3
tp3843
a(I2093
I2
tp3844
a(I3885
I2
tp3845
a(I4230
I1
tp3846
a(I1256
I0
tp3847
a(I4646
I0
tp3848
a(I2775
I2
tp3849
a(I1742
I1
tp3850
a(I4337
I3
tp3851
a(I3187
I0
tp3852
a(I3489
I0
tp3853
a(I2737
I4
tp3854
aa(lp3855
(I3847
I3
tp3856
a(I3436
I0
tp3857
a(I4323
I3
tp3858
a(I1196
I2
tp3859
a(I1256
I1
tp3860
a(I1422
I0
tp3861
a(I4646
I1
tp3862
a(I2056
I0
tp3863
a(I661
I2
tp3864
a(I5040
I2
tp3865
a(I2899
I0
tp3866
a(I4230
I2
tp3867
a(I3187
I3
tp3868
a(I4489
I4
tp3869
a(I4311
I1
tp3870
a(I1742
I2
tp3871
a(I1156
I0
tp3872
a(I1387
I1
tp3873
a(I3720
I0
tp3874
a(I2639
I2
tp3875
a(I4113
I0
tp3876
a(I250
I0
tp3877
a(I4201
I3
tp3878
a(I2586
I3
tp3879
a(I4429
I5
tp3880
a(I1926
I3
tp3881
a(I1566
I3
tp3882
a(I3573
I4
tp3883
a(I1137
I1
tp3884
a(I2159
I0
tp3885
a(I1738
I2
tp3886
a(I1030
I4
tp3887
a(I2748
I2
tp3888
a(I4635
I1
tp3889
a(I3404
I1
tp3890
a(I3331
I0
tp3891
a(I2093
I3
tp3892
a(I367
I0
tp3893
a(I3549
I0
tp3894
a(I2775
I3
tp3895
a(I1936
I0
tp3896
a(I1662
I0
tp3897
a(I388
I2
tp3898
a(I3187
I1
tp3899
a(I3489
I1
tp3900
a(I3885
I3
tp3901
a(I1425
I0
tp3902
a(I2518
I2
tp3903
a(I2605
I2
tp3904
a(I410
I1
tp3905
a(I2108
I2
tp3906
a(I4333
I4
tp3907
a(I12
I0
tp3908
a(I4209
I3
tp3909
a(I1100
I0
tp3910
a(I1011
I0
tp3911
a(I1057
I0
tp3912
a(I1482
I2
tp3913
a(I490
I3
tp3914
a(I0
I2
tp3915
a(I2585
I1
tp3916
aa(lp3917
(I2518
I3
tp3918
a(I3489
I2
tp3919
a(I233
I0
tp3920
a(I3331
I1
tp3921
a(I12
I1
tp3922
a(I4606
I0
tp3923
a(I4309
I0
tp3924
a(I1522
I0
tp3925
a(I2639
I3
tp3926
a(I1422
I1
tp3927
a(I410
I2
tp3928
a(I1137
I2
tp3929
a(I3767
I0
tp3930
a(I4311
I2
tp3931
a(I4581
I0
tp3932
a(I188
I0
tp3933
a(I1566
I4
tp3934
a(I0
I3
tp3935
a(I367
I1
tp3936
a(I854
I0
tp3937
a(I4635
I2
tp3938
a(I2733
I0
tp3939
a(I4484
I0
tp3940
a(I4059
I0
tp3941
a(I1662
I1
tp3942
a(I4832
I0
tp3943
a(I1607
I0
tp3944
a(I1256
I2
tp3945
a(I2056
I1
tp3946
a(I4799
I0
tp3947
a(I3885
I4
tp3948
a(I665
I0
tp3949
a(I86
I0
tp3950
a(I1131
I0
tp3951
a(I3549
I1
tp3952
a(I3187
I2
tp3953
a(I4646
I2
tp3954
a(I1628
I0
tp3955
a(I2899
I1
tp3956
a(I1156
I1
tp3957
a(I4209
I4
tp3958
a(I123
I0
tp3959
a(I1926
I4
tp3960
a(I1100
I1
tp3961
a(I4201
I4
tp3962
a(I250
I1
tp3963
a(I748
I0
tp3964
a(I4060
I0
tp3965
a(I2748
I3
tp3966
a(I436
I0
tp3967
a(I4113
I1
tp3968
a(I2777
I0
tp3969
a(I1425
I1
tp3970
a(I1148
I0
tp3971
a(I3719
I0
tp3972
a(I1011
I1
tp3973
a(I1482
I3
tp3974
a(I1057
I1
tp3975
a(I3404
I2
tp3976
a(I1682
I0
tp3977
a(I3436
I1
tp3978
a(I2159
I1
tp3979
a(I1387
I2
tp3980
a(I3048
I0
tp3981
a(I2108
I3
tp3982
a(I661
I3
tp3983
a(I1936
I1
tp3984
a(I3720
I1
tp3985
a(I1753
I0
tp3986
a(I919
I0
tp3987
a(I388
I3
tp3988
a(I2585
I2
tp3989
a(I2122
I0
tp3990
a(I1375
I0
tp3991
a(I3573
I5
tp3992
aa(lp3993
(I3436
I2
tp3994
a(I4059
I1
tp3995
a(I1607
I1
tp3996
a(I3048
I1
tp3997
a(I1020
I0
tp3998
a(I3885
I5
tp3999
a(I2518
I4
tp4000
a(I1131
I1
tp4001
a(I3549
I2
tp4002
a(I3187
I3
tp4003
a(I4113
I2
tp4004
a(I3720
I2
tp4005
a(I3719
I1
tp4006
a(I1682
I1
tp4007
a(I4
I0
tp4008
a(I4209
I5
tp4009
a(I123
I1
tp4010
a(I2159
I2
tp4011
a(I388
I4
tp4012
a(I410
I3
tp4013
a(I1046
I0
tp4014
a(I1425
I2
tp4015
a(I1558
I0
tp4016
a(I1968
I0
tp4017
a(I188
I1
tp4018
a(I86
I1
tp4019
a(I4484
I1
tp4020
a(I2417
I0
tp4021
a(I4799
I1
tp4022
a(I1057
I2
tp4023
a(I1256
I3
tp4024
a(I2056
I2
tp4025
a(I367
I2
tp4026
a(I12
I2
tp4027
a(I2777
I1
tp4028
a(I1662
I2
tp4029
a(I1387
I3
tp4030
a(I1936
I2
tp4031
a(I4646
I3
tp4032
a(I4311
I3
tp4033
a(I661
I4
tp4034
a(I1628
I1
tp4035
a(I1753
I1
tp4036
a(I4261
I0
tp4037
a(I919
I1
tp4038
a(I1156
I2
tp4039
a(I2585
I3
tp4040
a(I3331
I2
tp4041
a(I854
I1
tp4042
a(I1375
I1
tp4043
a(I1100
I2
tp4044
a(I1440
I0
tp4045
a(I748
I1
tp4046
a(I233
I1
tp4047
a(I228
I0
tp4048
a(I3570
I0
tp4049
a(I4309
I1
tp4050
a(I4497
I0
tp4051
a(I436
I1
tp4052
a(I250
I2
tp4053
a(I4581
I1
tp4054
a(I1137
I3
tp4055
a(I1148
I1
tp4056
a(I1522
I1
tp4057
a(I1422
I2
tp4058
a(I3767
I1
tp4059
a(I2639
I4
tp4060
a(I4060
I1
tp4061
a(I1188
I0
tp4062
a(I2733
I1
tp4063
a(I4635
I3
tp4064
a(I3404
I3
tp4065
a(I665
I1
tp4066
aa(lp4067
(I1440
I1
tp4068
a(I748
I2
tp4069
a(I1188
I1
tp4070
a(I436
I2
tp4071
a(I250
I3
tp4072
a(I1968
I1
tp4073
a(I1425
I3
tp4074
a(I4799
I2
tp4075
a(I228
I1
tp4076
a(I3719
I2
tp4077
a(I1387
I4
tp4078
a(I3331
I3
tp4079
a(I3189
I0
tp4080
a(I1522
I2
tp4081
a(I367
I3
tp4082
a(I1233
I0
tp4083
a(I2417
I1
tp4084
a(I2518
I5
tp4085
a(I1422
I3
tp4086
a(I1375
I2
tp4087
a(I2777
I2
tp4088
a(I4261
I1
tp4089
a(I3570
I1
tp4090
a(I4
I1
tp4091
a(I12
I3
tp4092
a(I4060
I2
tp4093
a(I1682
I2
tp4094
a(I4309
I2
tp4095
a(I4497
I1
tp4096
a(I3767
I2
tp4097
a(I188
I2
tp4098
a(I1721
I0
tp4099
a(I4635
I4
tp4100
a(I410
I4
tp4101
a(I4059
I2
tp4102
a(I216
I0
tp4103
a(I4581
I2
tp4104
a(I1558
I1
tp4105
a(I3048
I2
tp4106
a(I4646
I4
tp4107
a(I3720
I3
tp4108
a(I86
I2
tp4109
a(I2733
I2
tp4110
a(I1269
I0
tp4111
a(I1628
I2
tp4112
a(I1020
I1
tp4113
a(I4078
I0
tp4114
a(I1156
I3
tp4115
a(I2159
I3
tp4116
a(I665
I2
tp4117
a(I1046
I1
tp4118
a(I1936
I3
tp4119
a(I1100
I3
tp4120
aa(lp4121
(I86
I3
tp4122
a(I3719
I3
tp4123
a(I4072
I0
tp4124
a(I1422
I4
tp4125
a(I2792
I0
tp4126
a(I1135
I0
tp4127
a(I1233
I1
tp4128
a(I2417
I2
tp4129
a(I1020
I2
tp4130
a(I4078
I1
tp4131
a(I2000
I0
tp4132
a(I367
I4
tp4133
a(I1375
I3
tp4134
a(I2777
I3
tp4135
a(I4261
I2
tp4136
a(I1440
I2
tp4137
a(I748
I3
tp4138
a(I1046
I2
tp4139
a(I3143
I0
tp4140
a(I436
I3
tp4141
a(I3570
I2
tp4142
a(I3189
I1
tp4143
a(I1156
I4
tp4144
a(I1968
I2
tp4145
a(I4309
I3
tp4146
a(I4497
I2
tp4147
a(I3767
I3
tp4148
a(I1100
I4
tp4149
a(I1721
I1
tp4150
a(I4635
I5
tp4151
a(I228
I2
tp4152
a(I3048
I3
tp4153
a(I1269
I1
tp4154
a(I2733
I3
tp4155
a(I3098
I0
tp4156
a(I1558
I2
tp4157
a(I1188
I2
tp4158
a(I4
I2
tp4159
a(I1425
I4
tp4160
a(I1563
I0
tp4161
a(I1682
I3
tp4162
a(I1674
I0
tp4163
a(I2124
I0
tp4164
a(I207
I0
tp4165
a(I188
I3
tp4166
a(I1936
I4
tp4167
a(I216
I1
tp4168
a(I4799
I3
tp4169
a(I3331
I4
tp4170
a(I4646
I5
tp4171
a(I3720
I4
tp4172
aa(lp4173
(I1558
I3
tp4174
a(I1674
I1
tp4175
a(I3143
I1
tp4176
a(I4072
I1
tp4177
a(I1269
I2
tp4178
a(I5041
I0
tp4179
a(I1682
I4
tp4180
a(I4635
I6
tp4181
a(I3005
I0
tp4182
a(I86
I4
tp4183
a(I4497
I3
tp4184
a(I216
I2
tp4185
a(I1188
I3
tp4186
a(I1721
I2
tp4187
a(I2124
I1
tp4188
a(I3668
I0
tp4189
a(I3720
I5
tp4190
a(I3326
I0
tp4191
a(I3767
I4
tp4192
a(I1233
I2
tp4193
a(I3962
I0
tp4194
a(I3573
I0
tp4195
a(I2042
I0
tp4196
a(I2733
I4
tp4197
a(I3599
I0
tp4198
a(I1020
I3
tp4199
a(I2000
I1
tp4200
a(I2792
I1
tp4201
a(I1440
I3
tp4202
a(I3048
I4
tp4203
a(I1014
I0
tp4204
a(I4836
I0
tp4205
a(I1046
I3
tp4206
a(I1425
I5
tp4207
a(I1563
I1
tp4208
a(I3570
I3
tp4209
a(I1968
I3
tp4210
a(I207
I1
tp4211
a(I1100
I5
tp4212
a(I228
I3
tp4213
a(I3795
I0
tp4214
a(I278
I0
tp4215
a(I3331
I5
tp4216
a(I2930
I0
tp4217
a(I4078
I2
tp4218
a(I3098
I1
tp4219
a(I2777
I4
tp4220
a(I4799
I4
tp4221
a(I3189
I2
tp4222
a(I1135
I1
tp4223
a(I3719
I4
tp4224
a(I2417
I3
tp4225
a(I3835
I0
tp4226
a(I4
I3
tp4227
a(I4380
I0
tp4228
a(I367
I5
tp4229
a(I2445
I0
tp4230
a(I4261
I3
tp4231
aa(lp4232
(I3767
I5
tp4233
a(I3573
I1
tp4234
a(I228
I4
tp4235
a(I3668
I1
tp4236
a(I2733
I5
tp4237
a(I2845
I0
tp4238
a(I3098
I2
tp4239
a(I3005
I1
tp4240
a(I4345
I0
tp4241
a(I4380
I1
tp4242
a(I833
I0
tp4243
a(I1791
I0
tp4244
a(I1563
I2
tp4245
a(I3326
I1
tp4246
a(I3835
I1
tp4247
a(I2887
I0
tp4248
a(I4072
I2
tp4249
a(I207
I2
tp4250
a(I3711
I0
tp4251
a(I4
I4
tp4252
a(I2237
I0
tp4253
a(I3962
I1
tp4254
a(I4497
I4
tp4255
a(I3891
I0
tp4256
a(I3795
I1
tp4257
a(I4147
I0
tp4258
a(I2417
I4
tp4259
a(I1135
I2
tp4260
a(I2445
I1
tp4261
a(I4836
I1
tp4262
a(I2042
I1
tp4263
a(I2000
I2
tp4264
a(I1046
I4
tp4265
a(I3189
I3
tp4266
a(I4235
I0
tp4267
a(I1558
I4
tp4268
a(I2784
I0
tp4269
a(I1440
I4
tp4270
a(I4078
I3
tp4271
a(I1834
I0
tp4272
a(I1014
I1
tp4273
a(I1269
I3
tp4274
a(I3143
I2
tp4275
a(I2792
I2
tp4276
a(I2124
I2
tp4277
a(I4261
I4
tp4278
a(I1020
I4
tp4279
a(I862
I0
tp4280
a(I1968
I4
tp4281
a(I3599
I1
tp4282
a(I991
I0
tp4283
a(I3570
I4
tp4284
a(I5041
I1
tp4285
a(I5048
I0
tp4286
a(I278
I1
tp4287
a(I1721
I3
tp4288
a(I3048
I5
tp4289
a(I2930
I1
tp4290
a(I1674
I2
tp4291
aa(lp4292
(I862
I1
tp4293
a(I1014
I2
tp4294
a(I3143
I3
tp4295
a(I207
I3
tp4296
a(I136
I0
tp4297
a(I4072
I3
tp4298
a(I3962
I2
tp4299
a(I2237
I1
tp4300
a(I3795
I2
tp4301
a(I2615
I0
tp4302
a(I1550
I0
tp4303
a(I2712
I0
tp4304
a(I1674
I3
tp4305
a(I1197
I0
tp4306
a(I4147
I1
tp4307
a(I2417
I5
tp4308
a(I278
I2
tp4309
a(I3766
I0
tp4310
a(I2930
I2
tp4311
a(I1135
I3
tp4312
a(I2887
I1
tp4313
a(I3098
I3
tp4314
a(I3189
I4
tp4315
a(I4380
I2
tp4316
a(I1269
I4
tp4317
a(I4235
I1
tp4318
a(I4269
I0
tp4319
a(I4915
I0
tp4320
a(I3005
I2
tp4321
a(I609
I0
tp4322
a(I630
I0
tp4323
a(I4345
I1
tp4324
a(I2784
I1
tp4325
a(I4497
I5
tp4326
a(I2792
I3
tp4327
a(I3400
I0
tp4328
a(I2445
I2
tp4329
a(I4261
I5
tp4330
a(I1721
I4
tp4331
a(I4
I5
tp4332
a(I3326
I2
tp4333
a(I5041
I2
tp4334
a(I4153
I0
tp4335
a(I528
I0
tp4336
a(I759
I0
tp4337
a(I4836
I2
tp4338
a(I5048
I1
tp4339
a(I3891
I1
tp4340
a(I3478
I0
tp4341
a(I991
I1
tp4342
a(I2848
I0
tp4343
a(I3599
I2
tp4344
a(I1563
I3
tp4345
a(I2000
I3
tp4346
a(I3573
I2
tp4347
a(I4390
I0
tp4348
a(I1558
I5
tp4349
a(I2042
I2
tp4350
a(I1451
I0
tp4351
a(I2845
I1
tp4352
a(I2711
I0
tp4353
a(I3822
I0
tp4354
a(I1834
I1
tp4355
a(I3668
I2
tp4356
a(I4211
I0
tp4357
a(I3835
I2
tp4358
a(I3711
I1
tp4359
a(I833
I1
tp4360
a(I2124
I3
tp4361
a(I1791
I1
tp4362
aa(lp4363
(I2848
I1
tp4364
a(I1197
I1
tp4365
a(I4836
I3
tp4366
a(I3711
I2
tp4367
a(I4269
I1
tp4368
a(I4235
I2
tp4369
a(I2184
I0
tp4370
a(I3962
I3
tp4371
a(I3822
I1
tp4372
a(I3189
I5
tp4373
a(I1558
I6
tp4374
a(I3766
I1
tp4375
a(I4915
I1
tp4376
a(I609
I1
tp4377
a(I1834
I2
tp4378
a(I1014
I3
tp4379
a(I885
I0
tp4380
a(I2445
I3
tp4381
a(I136
I1
tp4382
a(I3644
I0
tp4383
a(I862
I2
tp4384
a(I4147
I2
tp4385
a(I2784
I2
tp4386
a(I3143
I4
tp4387
a(I1550
I1
tp4388
a(I5041
I3
tp4389
a(I1773
I0
tp4390
a(I4153
I1
tp4391
a(I991
I2
tp4392
a(I759
I1
tp4393
a(I2712
I1
tp4394
a(I2792
I4
tp4395
a(I4390
I1
tp4396
a(I2110
I0
tp4397
a(I3668
I3
tp4398
a(I3599
I3
tp4399
a(I113
I0
tp4400
a(I4380
I3
tp4401
a(I3573
I3
tp4402
a(I226
I0
tp4403
a(I3513
I0
tp4404
a(I1451
I1
tp4405
a(I1563
I4
tp4406
a(I1791
I2
tp4407
a(I2711
I1
tp4408
a(I4345
I2
tp4409
a(I630
I1
tp4410
a(I4211
I1
tp4411
a(I3835
I3
tp4412
a(I2887
I2
tp4413
a(I4072
I4
tp4414
a(I833
I2
tp4415
a(I4
I6
tp4416
a(I3400
I1
tp4417
a(I3005
I3
tp4418
a(I528
I1
tp4419
a(I3363
I0
tp4420
a(I3891
I2
tp4421
a(I2237
I2
tp4422
a(I5048
I2
tp4423
a(I2615
I1
tp4424
a(I2845
I2
tp4425
a(I3478
I1
tp4426
a(I1269
I5
tp4427
aa(lp4428
(I609
I2
tp4429
a(I630
I2
tp4430
a(I3400
I2
tp4431
a(I1773
I1
tp4432
a(I885
I1
tp4433
a(I2445
I4
tp4434
a(I3363
I1
tp4435
a(I528
I2
tp4436
a(I759
I2
tp4437
a(I113
I1
tp4438
a(I5048
I3
tp4439
a(I4380
I4
tp4440
a(I4836
I4
tp4441
a(I4153
I2
tp4442
a(I991
I3
tp4443
a(I3393
I0
tp4444
a(I1919
I0
tp4445
a(I2848
I2
tp4446
a(I2750
I0
tp4447
a(I2110
I1
tp4448
a(I3478
I2
tp4449
a(I2184
I1
tp4450
a(I1451
I2
tp4451
a(I4211
I2
tp4452
a(I2711
I2
tp4453
a(I3573
I4
tp4454
a(I4390
I2
tp4455
a(I3644
I1
tp4456
a(I3962
I4
tp4457
a(I4147
I3
tp4458
a(I1563
I5
tp4459
a(I3599
I4
tp4460
a(I1791
I3
tp4461
a(I3822
I2
tp4462
a(I1834
I3
tp4463
a(I3513
I1
tp4464
a(I2887
I3
tp4465
a(I833
I3
tp4466
a(I136
I2
tp4467
a(I862
I3
tp4468
a(I3512
I0
tp4469
a(I2845
I3
tp4470
a(I3711
I3
tp4471
a(I2615
I2
tp4472
a(I4701
I0
tp4473
a(I1232
I0
tp4474
a(I1290
I0
tp4475
a(I2712
I2
tp4476
a(I2237
I3
tp4477
a(I4269
I2
tp4478
a(I1550
I2
tp4479
a(I3766
I2
tp4480
a(I4345
I3
tp4481
a(I1197
I2
tp4482
a(I409
I0
tp4483
a(I4235
I3
tp4484
a(I226
I1
tp4485
a(I4915
I2
tp4486
a(I3143
I5
tp4487
a(I2784
I3
tp4488
a(I5041
I4
tp4489
a(I3891
I3
tp4490
aa(lp4491
(I4345
I4
tp4492
a(I4147
I4
tp4493
a(I2110
I2
tp4494
a(I1451
I3
tp4495
a(I113
I2
tp4496
a(I2711
I3
tp4497
a(I1616
I0
tp4498
a(I3573
I5
tp4499
a(I226
I2
tp4500
a(I3513
I2
tp4501
a(I359
I0
tp4502
a(I2845
I4
tp4503
a(I3599
I5
tp4504
a(I4380
I5
tp4505
a(I2155
I0
tp4506
a(I3400
I3
tp4507
a(I1773
I2
tp4508
a(I4085
I0
tp4509
a(I4701
I1
tp4510
a(I3711
I4
tp4511
a(I4927
I0
tp4512
a(I528
I3
tp4513
a(I4269
I3
tp4514
a(I3891
I4
tp4515
a(I1919
I1
tp4516
a(I1232
I1
tp4517
a(I2615
I3
tp4518
a(I922
I0
tp4519
a(I2237
I4
tp4520
a(I3478
I3
tp4521
a(I630
I3
tp4522
a(I4235
I4
tp4523
a(I2184
I2
tp4524
a(I1197
I3
tp4525
a(I4762
I0
tp4526
a(I72
I0
tp4527
a(I3363
I2
tp4528
a(I3124
I0
tp4529
a(I4390
I3
tp4530
a(I3644
I2
tp4531
a(I3512
I1
tp4532
a(I4915
I3
tp4533
a(I1290
I1
tp4534
a(I409
I1
tp4535
a(I3822
I3
tp4536
a(I3647
I0
tp4537
a(I2848
I3
tp4538
a(I3766
I3
tp4539
a(I136
I3
tp4540
a(I609
I3
tp4541
a(I546
I0
tp4542
a(I885
I2
tp4543
a(I2750
I1
tp4544
a(I759
I3
tp4545
a(I2712
I3
tp4546
a(I3351
I0
tp4547
a(I1550
I3
tp4548
a(I1377
I0
tp4549
a(I4153
I3
tp4550
a(I2655
I0
tp4551
a(I3393
I1
tp4552
a(I4211
I3
tp4553
aa(lp4554
(I2711
I4
tp4555
a(I1385
I0
tp4556
a(I2624
I0
tp4557
a(I3239
I0
tp4558
a(I1829
I0
tp4559
a(I1773
I3
tp4560
a(I1550
I4
tp4561
a(I3711
I5
tp4562
a(I2712
I4
tp4563
a(I2155
I1
tp4564
a(I4701
I2
tp4565
a(I2602
I0
tp4566
a(I4351
I0
tp4567
a(I2237
I5
tp4568
a(I2615
I4
tp4569
a(I1377
I1
tp4570
a(I359
I1
tp4571
a(I2110
I3
tp4572
a(I1197
I4
tp4573
a(I4927
I1
tp4574
a(I546
I1
tp4575
a(I660
I0
tp4576
a(I1616
I1
tp4577
a(I630
I4
tp4578
a(I226
I3
tp4579
a(I4085
I1
tp4580
a(I3351
I1
tp4581
a(I2806
I0
tp4582
a(I3917
I0
tp4583
a(I3647
I1
tp4584
a(I3393
I2
tp4585
a(I3708
I0
tp4586
a(I2750
I2
tp4587
a(I3363
I3
tp4588
a(I1818
I0
tp4589
a(I2588
I0
tp4590
a(I1232
I2
tp4591
a(I885
I3
tp4592
a(I1919
I2
tp4593
a(I2848
I4
tp4594
a(I3236
I0
tp4595
a(I1543
I0
tp4596
a(I3316
I0
tp4597
a(I2655
I1
tp4598
a(I759
I4
tp4599
a(I2184
I3
tp4600
a(I1451
I4
tp4601
a(I4762
I1
tp4602
a(I565
I0
tp4603
a(I72
I1
tp4604
a(I4345
I5
tp4605
a(I4241
I0
tp4606
a(I3124
I1
tp4607
a(I3644
I3
tp4608
a(I4692
I0
tp4609
a(I4139
I0
tp4610
a(I3766
I4
tp4611
a(I3599
I6
tp4612
a(I113
I3
tp4613
a(I4887
I0
tp4614
a(I3512
I2
tp4615
a(I2204
I0
tp4616
a(I409
I2
tp4617
a(I2849
I0
tp4618
a(I3513
I3
tp4619
a(I922
I1
tp4620
a(I4269
I4
tp4621
a(I1290
I2
tp4622
aa(lp4623
(I1377
I2
tp4624
a(I2615
I5
tp4625
a(I3239
I0
tp4626
a(I72
I2
tp4627
a(I44
I0
tp4628
a(I1155
I0
tp4629
a(I1829
I1
tp4630
a(I4887
I1
tp4631
a(I4692
I1
tp4632
a(I4762
I2
tp4633
a(I922
I2
tp4634
a(I3512
I3
tp4635
a(I4574
I0
tp4636
a(I2204
I1
tp4637
a(I3647
I2
tp4638
a(I3282
I0
tp4639
a(I4801
I0
tp4640
a(I1290
I3
tp4641
a(I1537
I0
tp4642
a(I1627
I0
tp4643
a(I3917
I1
tp4644
a(I3644
I4
tp4645
a(I2750
I3
tp4646
a(I2155
I2
tp4647
a(I3708
I1
tp4648
a(I3316
I1
tp4649
a(I3351
I2
tp4650
a(I4351
I1
tp4651
a(I2655
I2
tp4652
a(I3124
I2
tp4653
a(I1919
I3
tp4654
a(I4367
I0
tp4655
a(I113
I4
tp4656
a(I4206
I0
tp4657
a(I2624
I1
tp4658
a(I1193
I0
tp4659
a(I3393
I3
tp4660
a(I4345
I6
tp4661
a(I4975
I0
tp4662
a(I1543
I1
tp4663
a(I3236
I1
tp4664
a(I565
I1
tp4665
a(I3484
I0
tp4666
a(I660
I1
tp4667
a(I1616
I2
tp4668
a(I4241
I1
tp4669
a(I1758
I0
tp4670
a(I124
I0
tp4671
a(I16
I0
tp4672
a(I546
I2
tp4673
a(I2806
I1
tp4674
a(I409
I3
tp4675
a(I3519
I0
tp4676
a(I2849
I1
tp4677
a(I4927
I2
tp4678
a(I4190
I0
tp4679
a(I1385
I1
tp4680
a(I1818
I1
tp4681
a(I3239
I1
tp4682
a(I520
I0
tp4683
a(I1232
I3
tp4684
a(I4085
I2
tp4685
a(I4139
I1
tp4686
a(I2848
I5
tp4687
a(I238
I0
tp4688
a(I2602
I1
tp4689
a(I4701
I3
tp4690
a(I2588
I1
tp4691
a(I2184
I4
tp4692
a(I1773
I4
tp4693
a(I359
I2
tp4694
a(I100
I0
tp4695
aa(lp4696
(I4190
I1
tp4697
a(I1627
I1
tp4698
a(I3917
I2
tp4699
a(I1232
I4
tp4700
a(I4762
I3
tp4701
a(I8
I0
tp4702
a(I1758
I1
tp4703
a(I4509
I0
tp4704
a(I1818
I2
tp4705
a(I3708
I2
tp4706
a(I238
I1
tp4707
a(I2806
I2
tp4708
a(I3484
I1
tp4709
a(I1853
I0
tp4710
a(I2655
I3
tp4711
a(I922
I3
tp4712
a(I1829
I2
tp4713
a(I1543
I2
tp4714
a(I2602
I2
tp4715
a(I2539
I0
tp4716
a(I72
I3
tp4717
a(I44
I1
tp4718
a(I1193
I1
tp4719
a(I3124
I3
tp4720
a(I1612
I0
tp4721
a(I520
I1
tp4722
a(I100
I1
tp4723
a(I4139
I2
tp4724
a(I4032
I0
tp4725
a(I565
I2
tp4726
a(I4887
I2
tp4727
a(I4241
I2
tp4728
a(I2588
I2
tp4729
a(I4631
I0
tp4730
a(I4574
I1
tp4731
a(I2750
I4
tp4732
a(I4975
I1
tp4733
a(I2624
I2
tp4734
a(I3239
I2
tp4735
a(I3519
I1
tp4736
a(I2849
I2
tp4737
a(I2601
I0
tp4738
a(I2432
I0
tp4739
a(I1290
I4
tp4740
a(I3733
I0
tp4741
a(I2634
I0
tp4742
a(I3316
I2
tp4743
a(I3912
I0
tp4744
a(I3650
I0
tp4745
a(I1773
I5
tp4746
a(I2909
I0
tp4747
a(I4085
I3
tp4748
a(I4025
I0
tp4749
a(I3236
I2
tp4750
a(I4351
I2
tp4751
a(I4927
I3
tp4752
a(I810
I0
tp4753
a(I4030
I0
tp4754
a(I4367
I1
tp4755
a(I3282
I1
tp4756
a(I1988
I0
tp4757
a(I3529
I0
tp4758
a(I1377
I3
tp4759
a(I3239
I1
tp4760
a(I3592
I0
tp4761
a(I660
I2
tp4762
a(I1155
I1
tp4763
a(I4206
I1
tp4764
a(I1537
I1
tp4765
a(I4689
I0
tp4766
a(I124
I1
tp4767
a(I4692
I2
tp4768
a(I3647
I3
tp4769
a(I2155
I3
tp4770
a(I4801
I1
tp4771
aa(lp4772
(I1543
I3
tp4773
a(I4032
I1
tp4774
a(I1758
I2
tp4775
a(I4689
I1
tp4776
a(I3236
I3
tp4777
a(I3282
I2
tp4778
a(I1193
I2
tp4779
a(I218
I0
tp4780
a(I4509
I1
tp4781
a(I4139
I3
tp4782
a(I565
I3
tp4783
a(I124
I2
tp4784
a(I2539
I1
tp4785
a(I3519
I2
tp4786
a(I2666
I0
tp4787
a(I2624
I3
tp4788
a(I3529
I1
tp4789
a(I1537
I2
tp4790
a(I2634
I1
tp4791
a(I2849
I3
tp4792
a(I2155
I4
tp4793
a(I1853
I1
tp4794
a(I3948
I0
tp4795
a(I2909
I1
tp4796
a(I8
I1
tp4797
a(I3733
I1
tp4798
a(I4190
I2
tp4799
a(I1818
I3
tp4800
a(I1638
I0
tp4801
a(I1377
I4
tp4802
a(I4884
I0
tp4803
a(I1773
I6
tp4804
a(I3484
I2
tp4805
a(I1264
I0
tp4806
a(I4025
I1
tp4807
a(I4954
I0
tp4808
a(I4206
I2
tp4809
a(I4652
I0
tp4810
a(I3239
I2
tp4811
a(I72
I4
tp4812
a(I44
I2
tp4813
a(I1155
I2
tp4814
a(I1416
I0
tp4815
a(I1612
I1
tp4816
a(I520
I2
tp4817
a(I4975
I2
tp4818
a(I3239
I3
tp4819
a(I3139
I0
tp4820
a(I2801
I0
tp4821
a(I4030
I1
tp4822
a(I2588
I3
tp4823
a(I1670
I0
tp4824
a(I3650
I1
tp4825
a(I5019
I0
tp4826
a(I2233
I0
tp4827
a(I3592
I1
tp4828
a(I922
I4
tp4829
a(I4631
I1
tp4830
a(I339
I0
tp4831
a(I1627
I2
tp4832
a(I3124
I4
tp4833
a(I191
I0
tp4834
a(I1814
I0
tp4835
a(I1005
I0
tp4836
a(I2601
I1
tp4837
a(I2432
I1
tp4838
a(I1290
I5
tp4839
a(I263
I0
tp4840
a(I4367
I2
tp4841
a(I3316
I3
tp4842
a(I3917
I3
tp4843
a(I3647
I4
tp4844
a(I3269
I0
tp4845
a(I847
I0
tp4846
a(I3912
I1
tp4847
a(I4927
I4
tp4848
a(I810
I1
tp4849
a(I1829
I3
tp4850
a(I1988
I1
tp4851
a(I4574
I2
tp4852
a(I1571
I0
tp4853
a(I4762
I4
tp4854
aa(lp4855
(I1537
I3
tp4856
a(I3912
I2
tp4857
a(I3269
I1
tp4858
a(I2155
I5
tp4859
a(I4574
I3
tp4860
a(I4030
I2
tp4861
a(I2539
I2
tp4862
a(I3239
I4
tp4863
a(I3475
I0
tp4864
a(I2588
I4
tp4865
a(I2909
I2
tp4866
a(I4631
I2
tp4867
a(I1194
I0
tp4868
a(I4025
I2
tp4869
a(I1988
I2
tp4870
a(I3137
I0
tp4871
a(I3316
I4
tp4872
a(I810
I2
tp4873
a(I3805
I0
tp4874
a(I3239
I3
tp4875
a(I1504
I0
tp4876
a(I3282
I3
tp4877
a(I1155
I3
tp4878
a(I218
I1
tp4879
a(I1416
I1
tp4880
a(I4975
I3
tp4881
a(I3139
I1
tp4882
a(I2801
I1
tp4883
a(I124
I3
tp4884
a(I3947
I0
tp4885
a(I1758
I3
tp4886
a(I2233
I1
tp4887
a(I2666
I1
tp4888
a(I650
I0
tp4889
a(I339
I1
tp4890
a(I1627
I3
tp4891
a(I191
I1
tp4892
a(I1005
I1
tp4893
a(I1571
I1
tp4894
a(I8
I2
tp4895
a(I5019
I1
tp4896
a(I263
I1
tp4897
a(I4190
I3
tp4898
a(I4367
I3
tp4899
a(I1638
I1
tp4900
a(I3650
I2
tp4901
a(I4884
I1
tp4902
a(I3484
I3
tp4903
a(I847
I1
tp4904
a(I1264
I1
tp4905
a(I4509
I2
tp4906
a(I1818
I4
tp4907
a(I4206
I3
tp4908
a(I4652
I1
tp4909
a(I3592
I2
tp4910
a(I1612
I2
tp4911
a(I520
I3
tp4912
a(I3948
I1
tp4913
a(I4954
I1
tp4914
a(I2601
I2
tp4915
a(I1670
I1
tp4916
a(I1193
I3
tp4917
a(I2849
I4
tp4918
a(I4032
I2
tp4919
a(I4689
I2
tp4920
a(I3529
I2
tp4921
a(I565
I4
tp4922
a(I2554
I0
tp4923
a(I3124
I5
tp4924
a(I1814
I1
tp4925
a(I2634
I2
tp4926
a(I2432
I2
tp4927
aa(lp4928
(I3948
I2
tp4929
a(I3139
I2
tp4930
a(I39
I0
tp4931
a(I510
I0
tp4932
a(I3529
I3
tp4933
a(I3239
I4
tp4934
a(I339
I2
tp4935
a(I1670
I2
tp4936
a(I1627
I4
tp4937
a(I2233
I2
tp4938
a(I3562
I0
tp4939
a(I2432
I3
tp4940
a(I1791
I0
tp4941
a(I4884
I2
tp4942
a(I263
I2
tp4943
a(I2588
I5
tp4944
a(I3912
I3
tp4945
a(I1005
I2
tp4946
a(I847
I2
tp4947
a(I4030
I3
tp4948
a(I3805
I1
tp4949
a(I3353
I0
tp4950
a(I1988
I3
tp4951
a(I1504
I1
tp4952
a(I4652
I2
tp4953
a(I2089
I0
tp4954
a(I1416
I2
tp4955
a(I2554
I1
tp4956
a(I4636
I0
tp4957
a(I2539
I3
tp4958
a(I1537
I4
tp4959
a(I218
I2
tp4960
a(I4689
I3
tp4961
a(I650
I1
tp4962
a(I4574
I4
tp4963
a(I4032
I3
tp4964
a(I4954
I2
tp4965
a(I2666
I2
tp4966
a(I2801
I2
tp4967
a(I1571
I2
tp4968
a(I124
I4
tp4969
a(I5019
I2
tp4970
a(I3592
I3
tp4971
a(I3475
I1
tp4972
a(I1264
I2
tp4973
a(I3766
I0
tp4974
a(I3947
I1
tp4975
a(I1638
I2
tp4976
a(I1194
I1
tp4977
a(I2909
I3
tp4978
a(I3650
I3
tp4979
a(I4025
I3
tp4980
a(I3137
I1
tp4981
a(I1612
I3
tp4982
aa(lp4983
(I263
I3
tp4984
a(I4884
I3
tp4985
a(I1005
I3
tp4986
a(I847
I3
tp4987
a(I4954
I3
tp4988
a(I2768
I0
tp4989
a(I3805
I2
tp4990
a(I3353
I1
tp4991
a(I3947
I2
tp4992
a(I3766
I1
tp4993
a(I3948
I3
tp4994
a(I1194
I2
tp4995
a(I2283
I0
tp4996
a(I510
I1
tp4997
a(I2539
I4
tp4998
a(I2089
I1
tp4999
a(I940
I0
tp5000
a(I1670
I3
tp5001
a(I1537
I5
tp5002
a(I1612
I4
tp5003
a(I3562
I1
tp5004
a(I604
I0
tp5005
a(I4030
I4
tp5006
a(I3650
I4
tp5007
a(I3912
I4
tp5008
a(I3475
I2
tp5009
a(I1791
I1
tp5010
a(I375
I0
tp5011
a(I3529
I4
tp5012
a(I1504
I2
tp5013
a(I4652
I3
tp5014
a(I3137
I2
tp5015
a(I1416
I3
tp5016
a(I2233
I3
tp5017
a(I3139
I3
tp5018
a(I39
I1
tp5019
a(I1119
I0
tp5020
a(I2833
I0
tp5021
a(I218
I3
tp5022
a(I2554
I2
tp5023
a(I4636
I1
tp5024
a(I3592
I4
tp5025
a(I2666
I3
tp5026
a(I5019
I3
tp5027
a(I650
I2
tp5028
aa(lp5029
(I2089
I2
tp5030
a(I2283
I1
tp5031
a(I4954
I4
tp5032
a(I3813
I0
tp5033
a(I3592
I5
tp5034
a(I940
I1
tp5035
a(I2666
I4
tp5036
a(I2768
I1
tp5037
a(I4636
I2
tp5038
a(I3475
I3
tp5039
a(I375
I1
tp5040
a(I3562
I2
tp5041
a(I1194
I3
tp5042
a(I39
I2
tp5043
a(I1670
I4
tp5044
a(I3766
I2
tp5045
a(I510
I2
tp5046
a(I2833
I1
tp5047
a(I3947
I3
tp5048
a(I1612
I5
tp5049
a(I5019
I4
tp5050
a(I1791
I2
tp5051
a(I1608
I0
tp5052
a(I1119
I1
tp5053
a(I3139
I4
tp5054
a(I4652
I4
tp5055
a(I3353
I2
tp5056
a(I604
I1
tp5057
a(I1504
I3
tp5058
a(I1416
I4
tp5059
a(I218
I4
tp5060
aa(lp5061
(I274
I0
tp5062
a(I4949
I0
tp5063
a(I3475
I4
tp5064
a(I375
I2
tp5065
a(I1504
I4
tp5066
a(I3139
I5
tp5067
a(I39
I3
tp5068
a(I3947
I4
tp5069
a(I2833
I2
tp5070
a(I1119
I2
tp5071
a(I4444
I0
tp5072
a(I1791
I3
tp5073
a(I940
I2
tp5074
a(I2666
I5
tp5075
a(I4506
I0
tp5076
a(I4399
I0
tp5077
a(I2768
I2
tp5078
a(I4636
I3
tp5079
a(I375
I0
tp5080
a(I3353
I3
tp5081
a(I1670
I5
tp5082
a(I2654
I0
tp5083
a(I3766
I3
tp5084
a(I242
I0
tp5085
a(I1608
I1
tp5086
a(I510
I3
tp5087
a(I2283
I2
tp5088
a(I2089
I3
tp5089
a(I299
I0
tp5090
a(I604
I2
tp5091
a(I3813
I1
tp5092
a(I3562
I3
tp5093
a(I2833
I0
tp5094
a(I2148
I0
tp5095
aa(lp5096
(I2654
I1
tp5097
a(I1608
I2
tp5098
a(I4053
I0
tp5099
a(I604
I3
tp5100
a(I2833
I3
tp5101
a(I3342
I0
tp5102
a(I1119
I3
tp5103
a(I2148
I1
tp5104
a(I274
I1
tp5105
a(I3134
I0
tp5106
a(I3122
I0
tp5107
a(I917
I0
tp5108
a(I3957
I0
tp5109
a(I3766
I4
tp5110
a(I4399
I1
tp5111
a(I2089
I4
tp5112
a(I375
I1
tp5113
a(I1221
I0
tp5114
a(I1685
I0
tp5115
a(I1455
I0
tp5116
a(I2833
I1
tp5117
a(I4619
I0
tp5118
a(I2192
I0
tp5119
a(I4444
I1
tp5120
a(I3813
I2
tp5121
a(I940
I3
tp5122
a(I1927
I0
tp5123
a(I4506
I1
tp5124
a(I1635
I0
tp5125
a(I4949
I1
tp5126
a(I1876
I0
tp5127
a(I375
I3
tp5128
a(I299
I1
tp5129
a(I3139
I6
tp5130
a(I510
I4
tp5131
a(I3873
I0
tp5132
a(I4534
I0
tp5133
a(I242
I1
tp5134
aa(lp5135
(I4160
I0
tp5136
a(I4399
I2
tp5137
a(I1119
I4
tp5138
a(I3957
I1
tp5139
a(I1876
I1
tp5140
a(I375
I2
tp5141
a(I4506
I2
tp5142
a(I121
I0
tp5143
a(I1984
I0
tp5144
a(I510
I5
tp5145
a(I4552
I0
tp5146
a(I4534
I1
tp5147
a(I4892
I0
tp5148
a(I1608
I3
tp5149
a(I242
I2
tp5150
a(I1685
I1
tp5151
a(I299
I2
tp5152
a(I2654
I2
tp5153
a(I1455
I1
tp5154
a(I2833
I2
tp5155
a(I3342
I1
tp5156
a(I4619
I1
tp5157
a(I563
I0
tp5158
a(I2148
I2
tp5159
a(I2591
I0
tp5160
a(I2166
I0
tp5161
a(I3122
I1
tp5162
a(I3813
I3
tp5163
a(I27
I0
tp5164
a(I604
I4
tp5165
a(I1927
I1
tp5166
a(I1635
I1
tp5167
a(I4949
I2
tp5168
a(I3595
I0
tp5169
a(I1634
I0
tp5170
a(I334
I0
tp5171
a(I1221
I1
tp5172
a(I3873
I1
tp5173
a(I2833
I4
tp5174
a(I375
I4
tp5175
a(I3134
I1
tp5176
a(I4053
I1
tp5177
a(I2280
I0
tp5178
a(I2192
I1
tp5179
a(I4444
I2
tp5180
a(I826
I0
tp5181
a(I917
I1
tp5182
a(I627
I0
tp5183
a(I274
I2
tp5184
aa(lp5185
(I3218
I0
tp5186
a(I3560
I0
tp5187
a(I4895
I0
tp5188
a(I1455
I2
tp5189
a(I2130
I0
tp5190
a(I2280
I1
tp5191
a(I4619
I2
tp5192
a(I3134
I2
tp5193
a(I1685
I2
tp5194
a(I2192
I2
tp5195
a(I4444
I3
tp5196
a(I2833
I3
tp5197
a(I1984
I1
tp5198
a(I563
I1
tp5199
a(I214
I0
tp5200
a(I1927
I2
tp5201
a(I2591
I1
tp5202
a(I4160
I1
tp5203
a(I3813
I4
tp5204
a(I627
I1
tp5205
a(I826
I1
tp5206
a(I1036
I0
tp5207
a(I1876
I2
tp5208
a(I4506
I3
tp5209
a(I4949
I3
tp5210
a(I1548
I0
tp5211
a(I1221
I2
tp5212
a(I3595
I1
tp5213
a(I1608
I4
tp5214
a(I3873
I2
tp5215
a(I2833
I5
tp5216
a(I4534
I2
tp5217
a(I242
I3
tp5218
a(I2654
I3
tp5219
a(I917
I2
tp5220
a(I4053
I2
tp5221
a(I1635
I2
tp5222
a(I299
I3
tp5223
a(I2148
I3
tp5224
a(I4615
I0
tp5225
a(I2166
I1
tp5226
a(I3342
I2
tp5227
a(I274
I3
tp5228
a(I27
I1
tp5229
a(I3122
I2
tp5230
a(I4552
I1
tp5231
a(I4399
I3
tp5232
a(I1119
I5
tp5233
a(I3957
I2
tp5234
a(I1634
I1
tp5235
a(I375
I3
tp5236
a(I334
I1
tp5237
a(I121
I1
tp5238
a(I2874
I0
tp5239
a(I4892
I1
tp5240
aa(lp5241
(I1927
I3
tp5242
a(I2166
I2
tp5243
a(I3122
I3
tp5244
a(I1635
I3
tp5245
a(I2874
I1
tp5246
a(I3560
I1
tp5247
a(I3595
I2
tp5248
a(I1724
I0
tp5249
a(I274
I4
tp5250
a(I242
I4
tp5251
a(I121
I2
tp5252
a(I4949
I4
tp5253
a(I4895
I1
tp5254
a(I1634
I2
tp5255
a(I1548
I1
tp5256
a(I27
I2
tp5257
a(I917
I3
tp5258
a(I3218
I1
tp5259
a(I1221
I3
tp5260
a(I3873
I3
tp5261
a(I2280
I2
tp5262
a(I3134
I3
tp5263
a(I2495
I0
tp5264
a(I2192
I3
tp5265
a(I4117
I0
tp5266
a(I1036
I1
tp5267
a(I4053
I3
tp5268
a(I4892
I2
tp5269
a(I627
I2
tp5270
a(I4567
I0
tp5271
a(I2130
I1
tp5272
a(I214
I1
tp5273
a(I2744
I0
tp5274
a(I4639
I0
tp5275
a(I4160
I2
tp5276
a(I4900
I0
tp5277
a(I4219
I0
tp5278
a(I4534
I3
tp5279
a(I4444
I4
tp5280
a(I1876
I3
tp5281
a(I4615
I1
tp5282
a(I334
I2
tp5283
a(I3957
I3
tp5284
a(I4552
I2
tp5285
a(I4506
I4
tp5286
a(I4399
I4
tp5287
a(I2654
I4
tp5288
a(I1608
I5
tp5289
a(I826
I2
tp5290
a(I2833
I4
tp5291
a(I375
I4
tp5292
a(I370
I0
tp5293
a(I299
I4
tp5294
a(I1984
I2
tp5295
a(I1455
I3
tp5296
a(I4619
I3
tp5297
a(I1685
I3
tp5298
a(I563
I2
tp5299
a(I1534
I0
tp5300
a(I2591
I2
tp5301
a(I1564
I0
tp5302
a(I3342
I3
tp5303
a(I2971
I0
tp5304
aa(lp5305
(I1221
I4
tp5306
a(I1534
I0
tp5307
a(I2130
I2
tp5308
a(I3342
I4
tp5309
a(I242
I5
tp5310
a(I4567
I1
tp5311
a(I1257
I0
tp5312
a(I285
I0
tp5313
a(I509
I0
tp5314
a(I4985
I0
tp5315
a(I1564
I1
tp5316
a(I627
I3
tp5317
a(I1724
I1
tp5318
a(I4615
I2
tp5319
a(I4639
I1
tp5320
a(I2166
I3
tp5321
a(I1548
I2
tp5322
a(I4552
I3
tp5323
a(I4219
I1
tp5324
a(I3560
I2
tp5325
a(I4117
I1
tp5326
a(I3218
I2
tp5327
a(I2874
I2
tp5328
a(I3435
I0
tp5329
a(I3957
I4
tp5330
a(I1634
I3
tp5331
a(I334
I3
tp5332
a(I1036
I2
tp5333
a(I121
I3
tp5334
a(I2495
I1
tp5335
a(I1403
I0
tp5336
a(I2833
I5
tp5337
a(I2280
I3
tp5338
a(I2971
I1
tp5339
a(I2192
I4
tp5340
a(I1347
I0
tp5341
a(I4721
I0
tp5342
a(I1352
I0
tp5343
a(I826
I3
tp5344
a(I1534
I1
tp5345
a(I4892
I3
tp5346
a(I1990
I0
tp5347
a(I1685
I4
tp5348
a(I4900
I1
tp5349
a(I563
I3
tp5350
a(I2744
I1
tp5351
a(I2591
I3
tp5352
a(I4160
I3
tp5353
a(I4287
I0
tp5354
a(I214
I2
tp5355
a(I3595
I3
tp5356
a(I3873
I4
tp5357
a(I3581
I0
tp5358
a(I4949
I5
tp5359
a(I4895
I2
tp5360
a(I27
I3
tp5361
a(I370
I1
tp5362
a(I4409
I0
tp5363
aa(lp5364
(I214
I3
tp5365
a(I4615
I3
tp5366
a(I1347
I1
tp5367
a(I1918
I0
tp5368
a(I3121
I0
tp5369
a(I4117
I2
tp5370
a(I230
I0
tp5371
a(I3435
I1
tp5372
a(I3957
I5
tp5373
a(I2495
I2
tp5374
a(I4895
I3
tp5375
a(I2791
I0
tp5376
a(I2971
I2
tp5377
a(I1564
I2
tp5378
a(I1534
I1
tp5379
a(I1403
I1
tp5380
a(I2130
I3
tp5381
a(I3342
I5
tp5382
a(I370
I2
tp5383
a(I1827
I0
tp5384
a(I1990
I1
tp5385
a(I808
I0
tp5386
a(I4721
I1
tp5387
a(I4694
I0
tp5388
a(I4327
I0
tp5389
a(I2166
I4
tp5390
a(I3737
I0
tp5391
a(I1685
I5
tp5392
a(I1036
I3
tp5393
a(I4552
I4
tp5394
a(I3560
I3
tp5395
a(I3595
I4
tp5396
a(I2591
I4
tp5397
a(I1534
I2
tp5398
a(I4409
I1
tp5399
a(I4573
I0
tp5400
a(I651
I0
tp5401
a(I1724
I2
tp5402
a(I1548
I3
tp5403
a(I4476
I0
tp5404
a(I3218
I3
tp5405
a(I897
I0
tp5406
a(I3745
I0
tp5407
a(I1750
I0
tp5408
a(I2121
I0
tp5409
a(I5024
I0
tp5410
a(I2192
I5
tp5411
a(I1257
I1
tp5412
a(I3581
I1
tp5413
a(I509
I1
tp5414
a(I1352
I1
tp5415
a(I4567
I2
tp5416
a(I285
I1
tp5417
a(I4985
I1
tp5418
a(I2744
I2
tp5419
a(I4639
I2
tp5420
a(I4900
I2
tp5421
a(I4219
I2
tp5422
a(I4287
I1
tp5423
a(I3481
I0
tp5424
aa(lp5425
(I5024
I1
tp5426
a(I1533
I0
tp5427
a(I1347
I2
tp5428
a(I4900
I3
tp5429
a(I4278
I0
tp5430
a(I1827
I1
tp5431
a(I3218
I4
tp5432
a(I4721
I2
tp5433
a(I214
I4
tp5434
a(I2744
I3
tp5435
a(I3737
I1
tp5436
a(I4287
I2
tp5437
a(I2067
I0
tp5438
a(I3306
I0
tp5439
a(I152
I0
tp5440
a(I3838
I0
tp5441
a(I3755
I0
tp5442
a(I4409
I2
tp5443
a(I4327
I1
tp5444
a(I3138
I0
tp5445
a(I419
I0
tp5446
a(I721
I0
tp5447
a(I3745
I1
tp5448
a(I4895
I4
tp5449
a(I1036
I4
tp5450
a(I509
I2
tp5451
a(I3581
I2
tp5452
a(I4694
I1
tp5453
a(I2166
I0
tp5454
a(I370
I3
tp5455
a(I2121
I1
tp5456
a(I1045
I0
tp5457
a(I178
I0
tp5458
a(I1257
I2
tp5459
a(I230
I1
tp5460
a(I1534
I2
tp5461
a(I3759
I0
tp5462
a(I2130
I4
tp5463
a(I1564
I3
tp5464
a(I4567
I3
tp5465
a(I1990
I2
tp5466
a(I285
I2
tp5467
a(I522
I0
tp5468
a(I4985
I2
tp5469
a(I4639
I3
tp5470
a(I4219
I3
tp5471
a(I3560
I4
tp5472
a(I1918
I1
tp5473
a(I4043
I0
tp5474
a(I1750
I1
tp5475
a(I1534
I3
tp5476
a(I3435
I2
tp5477
a(I651
I1
tp5478
a(I1352
I2
tp5479
a(I3121
I1
tp5480
a(I1724
I3
tp5481
a(I4117
I3
tp5482
a(I4615
I4
tp5483
a(I897
I1
tp5484
a(I1548
I4
tp5485
a(I4476
I1
tp5486
a(I2791
I1
tp5487
a(I1733
I0
tp5488
a(I4892
I0
tp5489
a(I2495
I3
tp5490
a(I1403
I2
tp5491
a(I808
I1
tp5492
a(I863
I0
tp5493
a(I2971
I3
tp5494
a(I4573
I1
tp5495
a(I3481
I1
tp5496
aa(lp5497
(I419
I1
tp5498
a(I4278
I1
tp5499
a(I897
I2
tp5500
a(I1352
I3
tp5501
a(I1724
I4
tp5502
a(I967
I0
tp5503
a(I3218
I5
tp5504
a(I285
I3
tp5505
a(I3871
I0
tp5506
a(I1457
I0
tp5507
a(I3364
I0
tp5508
a(I3745
I2
tp5509
a(I3938
I0
tp5510
a(I3755
I1
tp5511
a(I1733
I1
tp5512
a(I2067
I1
tp5513
a(I4671
I0
tp5514
a(I1827
I2
tp5515
a(I808
I2
tp5516
a(I2495
I4
tp5517
a(I1128
I0
tp5518
a(I4043
I1
tp5519
a(I3991
I0
tp5520
a(I4287
I3
tp5521
a(I4135
I0
tp5522
a(I721
I1
tp5523
a(I4573
I2
tp5524
a(I1299
I0
tp5525
a(I5024
I2
tp5526
a(I1760
I0
tp5527
a(I2380
I0
tp5528
a(I3759
I1
tp5529
a(I3306
I1
tp5530
a(I993
I0
tp5531
a(I2724
I0
tp5532
a(I4777
I0
tp5533
a(I4639
I4
tp5534
a(I3138
I1
tp5535
a(I2756
I0
tp5536
a(I2166
I1
tp5537
a(I2582
I0
tp5538
a(I1347
I3
tp5539
a(I2531
I0
tp5540
a(I2130
I5
tp5541
a(I1712
I0
tp5542
a(I2791
I2
tp5543
a(I3737
I2
tp5544
a(I4409
I3
tp5545
a(I2276
I0
tp5546
a(I522
I1
tp5547
a(I4099
I0
tp5548
a(I651
I2
tp5549
a(I509
I3
tp5550
a(I1
I0
tp5551
a(I2121
I2
tp5552
a(I1045
I1
tp5553
a(I1257
I3
tp5554
a(I1935
I0
tp5555
a(I1971
I0
tp5556
a(I4985
I3
tp5557
a(I4045
I0
tp5558
a(I1918
I2
tp5559
a(I3677
I0
tp5560
a(I3121
I2
tp5561
a(I4117
I4
tp5562
a(I1750
I2
tp5563
a(I1534
I3
tp5564
a(I4327
I2
tp5565
a(I1564
I4
tp5566
a(I4476
I2
tp5567
a(I4892
I1
tp5568
a(I3838
I1
tp5569
a(I4771
I0
tp5570
a(I4198
I0
tp5571
a(I214
I5
tp5572
a(I152
I1
tp5573
a(I178
I1
tp5574
a(I2898
I0
tp5575
a(I3237
I0
tp5576
a(I1403
I3
tp5577
a(I863
I1
tp5578
a(I4694
I2
tp5579
a(I1533
I1
tp5580
a(I185
I0
tp5581
a(I3600
I0
tp5582
a(I230
I2
tp5583
a(I3481
I2
tp5584
a(I3560
I5
tp5585
a(I3213
I0
tp5586
aa(lp5587
(I1750
I3
tp5588
a(I4919
I0
tp5589
a(I2968
I0
tp5590
a(I993
I1
tp5591
a(I1564
I5
tp5592
a(I4777
I1
tp5593
a(I3755
I2
tp5594
a(I4639
I5
tp5595
a(I4476
I3
tp5596
a(I4892
I2
tp5597
a(I1533
I2
tp5598
a(I1
I1
tp5599
a(I185
I1
tp5600
a(I4278
I2
tp5601
a(I4198
I1
tp5602
a(I2531
I1
tp5603
a(I152
I2
tp5604
a(I2940
I0
tp5605
a(I3737
I3
tp5606
a(I2898
I1
tp5607
a(I73
I0
tp5608
a(I4099
I1
tp5609
a(I1457
I1
tp5610
a(I509
I4
tp5611
a(I3423
I0
tp5612
a(I4694
I3
tp5613
a(I3759
I2
tp5614
a(I986
I0
tp5615
a(I2121
I3
tp5616
a(I1045
I2
tp5617
a(I1935
I1
tp5618
a(I230
I3
tp5619
a(I1971
I1
tp5620
a(I4045
I1
tp5621
a(I3677
I1
tp5622
a(I3121
I3
tp5623
a(I4117
I5
tp5624
a(I1347
I4
tp5625
a(I1724
I5
tp5626
a(I3838
I2
tp5627
a(I651
I3
tp5628
a(I2067
I2
tp5629
a(I3364
I1
tp5630
a(I2791
I3
tp5631
a(I2756
I1
tp5632
a(I3938
I1
tp5633
a(I3600
I1
tp5634
a(I3138
I2
tp5635
a(I808
I3
tp5636
a(I2166
I2
tp5637
a(I1128
I1
tp5638
a(I1935
I0
tp5639
a(I4771
I1
tp5640
a(I3983
I0
tp5641
a(I3237
I1
tp5642
a(I1760
I1
tp5643
a(I2380
I1
tp5644
a(I4409
I4
tp5645
a(I4327
I3
tp5646
a(I3481
I3
tp5647
a(I2724
I1
tp5648
a(I3213
I1
tp5649
a(I4135
I1
tp5650
a(I2582
I1
tp5651
a(I897
I3
tp5652
a(I4985
I4
tp5653
a(I967
I1
tp5654
a(I1712
I1
tp5655
a(I285
I4
tp5656
a(I2276
I1
tp5657
a(I3871
I1
tp5658
a(I3745
I3
tp5659
a(I1403
I4
tp5660
a(I863
I2
tp5661
a(I1733
I2
tp5662
a(I4043
I2
tp5663
a(I4671
I1
tp5664
a(I1827
I3
tp5665
a(I2495
I5
tp5666
a(I1189
I0
tp5667
a(I3991
I1
tp5668
a(I419
I2
tp5669
a(I178
I2
tp5670
a(I721
I2
tp5671
a(I4573
I3
tp5672
a(I1299
I1
tp5673
a(I522
I2
tp5674
aa(lp5675
(I993
I2
tp5676
a(I914
I0
tp5677
a(I986
I1
tp5678
a(I178
I3
tp5679
a(I4313
I0
tp5680
a(I2898
I2
tp5681
a(I4777
I2
tp5682
a(I1403
I5
tp5683
a(I3600
I2
tp5684
a(I3983
I1
tp5685
a(I1533
I3
tp5686
a(I1750
I4
tp5687
a(I3138
I3
tp5688
a(I3837
I0
tp5689
a(I4671
I2
tp5690
a(I2756
I2
tp5691
a(I185
I2
tp5692
a(I3213
I2
tp5693
a(I3237
I2
tp5694
a(I1189
I1
tp5695
a(I1733
I3
tp5696
a(I1
I2
tp5697
a(I2582
I2
tp5698
a(I3737
I4
tp5699
a(I1971
I2
tp5700
a(I3677
I2
tp5701
a(I1760
I2
tp5702
a(I4279
I0
tp5703
a(I624
I0
tp5704
a(I2067
I3
tp5705
a(I3420
I0
tp5706
a(I2968
I1
tp5707
a(I2276
I2
tp5708
a(I1540
I0
tp5709
a(I4726
I0
tp5710
a(I4135
I2
tp5711
a(I2166
I3
tp5712
a(I4099
I2
tp5713
a(I648
I0
tp5714
a(I651
I4
tp5715
a(I419
I3
tp5716
a(I73
I1
tp5717
a(I4919
I1
tp5718
a(I2843
I0
tp5719
a(I4892
I3
tp5720
a(I2791
I4
tp5721
a(I721
I3
tp5722
a(I4045
I2
tp5723
a(I3364
I2
tp5724
a(I1935
I1
tp5725
a(I509
I5
tp5726
a(I967
I2
tp5727
a(I3423
I1
tp5728
a(I4278
I3
tp5729
a(I2380
I2
tp5730
a(I2940
I1
tp5731
a(I1935
I2
tp5732
a(I2656
I0
tp5733
a(I4985
I5
tp5734
a(I2408
I0
tp5735
a(I3745
I4
tp5736
a(I1045
I3
tp5737
a(I152
I3
tp5738
a(I4198
I2
tp5739
a(I1457
I2
tp5740
a(I3871
I2
tp5741
a(I2746
I0
tp5742
a(I2724
I2
tp5743
a(I285
I5
tp5744
a(I270
I0
tp5745
aa(lp5746
(I2656
I1
tp5747
a(I1733
I4
tp5748
a(I1
I3
tp5749
a(I3751
I0
tp5750
a(I766
I0
tp5751
a(I2746
I1
tp5752
a(I2408
I1
tp5753
a(I3737
I5
tp5754
a(I2067
I4
tp5755
a(I4777
I0
tp5756
a(I4070
I0
tp5757
a(I4198
I3
tp5758
a(I2940
I2
tp5759
a(I1944
I0
tp5760
a(I419
I4
tp5761
a(I721
I4
tp5762
a(I2898
I3
tp5763
a(I73
I2
tp5764
a(I1189
I2
tp5765
a(I3600
I3
tp5766
a(I3215
I0
tp5767
a(I178
I4
tp5768
a(I3645
I0
tp5769
a(I2166
I4
tp5770
a(I270
I1
tp5771
a(I1457
I3
tp5772
a(I914
I1
tp5773
a(I2756
I3
tp5774
a(I1540
I1
tp5775
a(I3138
I4
tp5776
a(I2990
I0
tp5777
a(I2582
I3
tp5778
a(I4905
I0
tp5779
a(I2843
I1
tp5780
a(I3423
I2
tp5781
a(I4885
I0
tp5782
a(I1935
I3
tp5783
a(I1102
I0
tp5784
a(I4279
I1
tp5785
a(I3078
I0
tp5786
a(I4919
I2
tp5787
a(I986
I2
tp5788
a(I624
I1
tp5789
a(I3837
I1
tp5790
a(I1045
I4
tp5791
a(I3420
I1
tp5792
a(I4313
I1
tp5793
a(I1095
I0
tp5794
a(I4726
I1
tp5795
a(I1935
I2
tp5796
a(I1138
I0
tp5797
a(I993
I3
tp5798
a(I3893
I0
tp5799
a(I3983
I2
tp5800
a(I4045
I3
tp5801
a(I4777
I3
tp5802
a(I2941
I0
tp5803
a(I118
I0
tp5804
a(I4278
I4
tp5805
a(I3310
I0
tp5806
a(I2402
I0
tp5807
a(I3677
I3
tp5808
a(I648
I1
tp5809
a(I2935
I0
tp5810
a(I1760
I3
tp5811
a(I185
I3
tp5812
a(I1078
I0
tp5813
a(I2380
I3
tp5814
a(I2968
I2
tp5815
aa(lp5816
(I146
I0
tp5817
a(I4070
I1
tp5818
a(I4726
I2
tp5819
a(I217
I0
tp5820
a(I4693
I0
tp5821
a(I1095
I1
tp5822
a(I118
I1
tp5823
a(I986
I3
tp5824
a(I73
I3
tp5825
a(I4442
I0
tp5826
a(I3215
I1
tp5827
a(I3645
I1
tp5828
a(I3310
I1
tp5829
a(I765
I0
tp5830
a(I1760
I4
tp5831
a(I5011
I0
tp5832
a(I3423
I3
tp5833
a(I2843
I2
tp5834
a(I1935
I4
tp5835
a(I1078
I1
tp5836
a(I3844
I0
tp5837
a(I3378
I0
tp5838
a(I766
I1
tp5839
a(I4285
I0
tp5840
a(I4905
I1
tp5841
a(I3970
I0
tp5842
a(I4978
I0
tp5843
a(I4885
I1
tp5844
a(I914
I2
tp5845
a(I1102
I1
tp5846
a(I2940
I3
tp5847
a(I2746
I2
tp5848
a(I4919
I3
tp5849
a(I3837
I2
tp5850
a(I686
I0
tp5851
a(I3893
I1
tp5852
a(I4313
I2
tp5853
a(I737
I0
tp5854
a(I2372
I0
tp5855
a(I2335
I0
tp5856
a(I4045
I4
tp5857
a(I648
I2
tp5858
a(I3600
I4
tp5859
a(I3983
I3
tp5860
a(I178
I5
tp5861
a(I2935
I1
tp5862
a(I2898
I4
tp5863
a(I1
I4
tp5864
a(I2582
I4
tp5865
a(I1935
I3
tp5866
a(I4279
I2
tp5867
a(I1540
I2
tp5868
a(I3677
I4
tp5869
a(I270
I2
tp5870
a(I2990
I1
tp5871
a(I2656
I2
tp5872
a(I4777
I1
tp5873
a(I1754
I0
tp5874
a(I2408
I2
tp5875
a(I4984
I0
tp5876
a(I1733
I5
tp5877
a(I2941
I1
tp5878
a(I3078
I1
tp5879
a(I3751
I1
tp5880
a(I3737
I6
tp5881
a(I624
I2
tp5882
a(I2402
I1
tp5883
a(I4011
I0
tp5884
a(I3420
I2
tp5885
a(I2968
I3
tp5886
a(I1138
I1
tp5887
a(I419
I5
tp5888
a(I1944
I1
tp5889
a(I1189
I3
tp5890
aa(lp5891
(I64
I0
tp5892
a(I18
I0
tp5893
a(I4777
I2
tp5894
a(I118
I2
tp5895
a(I3423
I4
tp5896
a(I624
I3
tp5897
a(I2402
I2
tp5898
a(I4885
I2
tp5899
a(I3625
I0
tp5900
a(I2935
I2
tp5901
a(I4285
I1
tp5902
a(I3970
I1
tp5903
a(I3078
I2
tp5904
a(I986
I4
tp5905
a(I3837
I3
tp5906
a(I4984
I1
tp5907
a(I2881
I0
tp5908
a(I1102
I2
tp5909
a(I1535
I0
tp5910
a(I737
I1
tp5911
a(I146
I1
tp5912
a(I3460
I0
tp5913
a(I4726
I3
tp5914
a(I777
I0
tp5915
a(I4442
I1
tp5916
a(I1
I5
tp5917
a(I3875
I0
tp5918
a(I2918
I0
tp5919
a(I4285
I0
tp5920
a(I4279
I3
tp5921
a(I752
I0
tp5922
a(I2941
I2
tp5923
a(I3983
I4
tp5924
a(I394
I0
tp5925
a(I3310
I2
tp5926
a(I3844
I1
tp5927
a(I3677
I5
tp5928
a(I3751
I2
tp5929
a(I4919
I4
tp5930
a(I2408
I3
tp5931
a(I1078
I2
tp5932
a(I2335
I1
tp5933
a(I2077
I0
tp5934
a(I766
I2
tp5935
a(I2746
I3
tp5936
a(I1373
I0
tp5937
a(I2335
I0
tp5938
a(I1935
I4
tp5939
a(I686
I1
tp5940
a(I4011
I1
tp5941
a(I1944
I2
tp5942
a(I73
I4
tp5943
a(I648
I3
tp5944
a(I2990
I2
tp5945
a(I914
I3
tp5946
a(I1754
I1
tp5947
a(I3215
I2
tp5948
a(I765
I1
tp5949
a(I4693
I1
tp5950
a(I2898
I5
tp5951
a(I1138
I2
tp5952
a(I79
I0
tp5953
a(I5035
I0
tp5954
a(I4070
I2
tp5955
a(I791
I0
tp5956
a(I3378
I1
tp5957
a(I1540
I3
tp5958
a(I2656
I3
tp5959
a(I5011
I1
tp5960
a(I2372
I1
tp5961
a(I4978
I1
tp5962
a(I217
I1
tp5963
aa(lp5964
(I70
I0
tp5965
a(I1373
I1
tp5966
a(I4777
I3
tp5967
a(I4978
I2
tp5968
a(I3875
I1
tp5969
a(I914
I4
tp5970
a(I2717
I0
tp5971
a(I4070
I3
tp5972
a(I4285
I1
tp5973
a(I3193
I0
tp5974
a(I3460
I1
tp5975
a(I2656
I4
tp5976
a(I2990
I3
tp5977
a(I2372
I2
tp5978
a(I18
I1
tp5979
a(I2335
I1
tp5980
a(I118
I3
tp5981
a(I3751
I3
tp5982
a(I839
I0
tp5983
a(I3625
I1
tp5984
a(I1844
I0
tp5985
a(I624
I4
tp5986
a(I4011
I2
tp5987
a(I1540
I4
tp5988
a(I4838
I0
tp5989
a(I1637
I0
tp5990
a(I4116
I0
tp5991
a(I4726
I4
tp5992
a(I765
I2
tp5993
a(I4984
I2
tp5994
a(I3970
I2
tp5995
a(I1102
I3
tp5996
a(I73
I5
tp5997
a(I5023
I0
tp5998
a(I845
I0
tp5999
a(I743
I0
tp6000
a(I64
I1
tp6001
a(I692
I0
tp6002
a(I1138
I3
tp6003
a(I876
I0
tp6004
a(I2918
I1
tp6005
a(I4693
I2
tp6006
a(I1054
I0
tp6007
a(I1754
I2
tp6008
a(I752
I1
tp6009
a(I217
I2
tp6010
a(I5011
I2
tp6011
a(I5035
I1
tp6012
a(I394
I1
tp6013
a(I791
I1
tp6014
a(I3844
I2
tp6015
a(I777
I1
tp6016
a(I4442
I2
tp6017
a(I2408
I4
tp6018
a(I1010
I0
tp6019
a(I146
I2
tp6020
a(I1845
I0
tp6021
a(I3378
I2
tp6022
a(I766
I3
tp6023
a(I79
I1
tp6024
a(I3423
I5
tp6025
a(I2077
I1
tp6026
a(I1944
I3
tp6027
a(I4285
I2
tp6028
a(I2335
I2
tp6029
a(I3837
I4
tp6030
a(I686
I2
tp6031
a(I2881
I1
tp6032
a(I141
I0
tp6033
a(I1535
I1
tp6034
aa(lp6035
(I2194
I0
tp6036
a(I1099
I0
tp6037
a(I4200
I0
tp6038
a(I3378
I3
tp6039
a(I839
I1
tp6040
a(I3625
I2
tp6041
a(I692
I1
tp6042
a(I4011
I3
tp6043
a(I752
I2
tp6044
a(I3751
I4
tp6045
a(I1373
I2
tp6046
a(I2335
I3
tp6047
a(I2497
I0
tp6048
a(I2708
I0
tp6049
a(I146
I3
tp6050
a(I3528
I0
tp6051
a(I5023
I1
tp6052
a(I845
I1
tp6053
a(I79
I2
tp6054
a(I743
I1
tp6055
a(I4643
I0
tp6056
a(I2990
I4
tp6057
a(I70
I1
tp6058
a(I791
I2
tp6059
a(I4693
I3
tp6060
a(I118
I4
tp6061
a(I2656
I5
tp6062
a(I1845
I1
tp6063
a(I1331
I0
tp6064
a(I2946
I0
tp6065
a(I1951
I0
tp6066
a(I64
I2
tp6067
a(I3789
I0
tp6068
a(I676
I0
tp6069
a(I425
I0
tp6070
a(I169
I0
tp6071
a(I4608
I0
tp6072
a(I4978
I3
tp6073
a(I2335
I2
tp6074
a(I1946
I0
tp6075
a(I18
I2
tp6076
a(I1783
I0
tp6077
a(I1102
I4
tp6078
a(I4838
I1
tp6079
a(I348
I0
tp6080
a(I4116
I1
tp6081
a(I4788
I0
tp6082
a(I2077
I2
tp6083
a(I1535
I2
tp6084
a(I4285
I3
tp6085
a(I1054
I1
tp6086
a(I3460
I2
tp6087
a(I3837
I5
tp6088
a(I141
I1
tp6089
a(I3875
I2
tp6090
a(I876
I1
tp6091
a(I2805
I0
tp6092
a(I780
I0
tp6093
a(I777
I2
tp6094
a(I4881
I0
tp6095
a(I1844
I1
tp6096
a(I1754
I3
tp6097
a(I1138
I4
tp6098
a(I1963
I0
tp6099
a(I2717
I1
tp6100
a(I843
I0
tp6101
a(I2918
I2
tp6102
a(I4285
I2
tp6103
a(I3193
I1
tp6104
a(I3844
I3
tp6105
a(I1637
I1
tp6106
a(I2408
I5
tp6107
a(I5035
I2
tp6108
a(I1010
I1
tp6109
a(I394
I2
tp6110
aa(lp6111
(I4027
I0
tp6112
a(I876
I2
tp6113
a(I1054
I2
tp6114
a(I845
I2
tp6115
a(I4200
I1
tp6116
a(I2805
I1
tp6117
a(I752
I3
tp6118
a(I4643
I1
tp6119
a(I5035
I3
tp6120
a(I2946
I1
tp6121
a(I2918
I3
tp6122
a(I791
I3
tp6123
a(I1754
I4
tp6124
a(I405
I0
tp6125
a(I2922
I0
tp6126
a(I780
I1
tp6127
a(I1852
I0
tp6128
a(I1331
I1
tp6129
a(I394
I3
tp6130
a(I2194
I1
tp6131
a(I1951
I1
tp6132
a(I859
I0
tp6133
a(I3789
I1
tp6134
a(I169
I1
tp6135
a(I1963
I1
tp6136
a(I1010
I2
tp6137
a(I676
I1
tp6138
a(I3844
I4
tp6139
a(I1845
I2
tp6140
a(I4454
I0
tp6141
a(I3196
I0
tp6142
a(I843
I1
tp6143
a(I3031
I0
tp6144
a(I3071
I0
tp6145
a(I79
I3
tp6146
a(I1783
I1
tp6147
a(I1535
I3
tp6148
a(I4285
I4
tp6149
a(I3193
I2
tp6150
a(I2353
I0
tp6151
a(I1099
I1
tp6152
a(I777
I3
tp6153
a(I141
I2
tp6154
a(I3875
I3
tp6155
a(I2990
I5
tp6156
a(I2668
I0
tp6157
a(I2335
I4
tp6158
a(I1844
I2
tp6159
a(I2077
I3
tp6160
a(I2708
I1
tp6161
a(I18
I3
tp6162
a(I118
I5
tp6163
a(I146
I4
tp6164
a(I70
I2
tp6165
a(I2717
I2
tp6166
a(I4285
I3
tp6167
a(I692
I2
tp6168
a(I2335
I3
tp6169
a(I64
I3
tp6170
a(I3160
I0
tp6171
a(I1637
I2
tp6172
a(I839
I2
tp6173
a(I425
I1
tp6174
a(I4608
I1
tp6175
a(I2505
I0
tp6176
a(I3018
I0
tp6177
a(I4011
I4
tp6178
a(I1946
I1
tp6179
a(I3528
I1
tp6180
a(I4116
I2
tp6181
a(I4881
I1
tp6182
a(I3625
I3
tp6183
a(I4788
I1
tp6184
a(I4838
I2
tp6185
a(I5023
I2
tp6186
a(I1373
I3
tp6187
a(I2291
I0
tp6188
a(I348
I1
tp6189
a(I3361
I0
tp6190
a(I2497
I1
tp6191
a(I743
I2
tp6192
aa(lp6193
(I791
I4
tp6194
a(I1303
I0
tp6195
a(I2716
I0
tp6196
a(I3789
I2
tp6197
a(I3018
I1
tp6198
a(I169
I2
tp6199
a(I4788
I2
tp6200
a(I1783
I2
tp6201
a(I1845
I3
tp6202
a(I4838
I3
tp6203
a(I859
I1
tp6204
a(I777
I4
tp6205
a(I3031
I1
tp6206
a(I4285
I5
tp6207
a(I876
I3
tp6208
a(I4699
I0
tp6209
a(I2918
I4
tp6210
a(I2291
I1
tp6211
a(I692
I3
tp6212
a(I752
I4
tp6213
a(I405
I1
tp6214
a(I146
I5
tp6215
a(I2194
I2
tp6216
a(I4881
I2
tp6217
a(I2335
I4
tp6218
a(I1754
I5
tp6219
a(I1852
I1
tp6220
a(I2922
I1
tp6221
a(I2717
I3
tp6222
a(I3010
I0
tp6223
a(I4285
I4
tp6224
a(I3193
I3
tp6225
a(I1099
I2
tp6226
a(I1637
I3
tp6227
a(I425
I2
tp6228
a(I839
I3
tp6229
a(I809
I0
tp6230
a(I4480
I0
tp6231
a(I1010
I3
tp6232
a(I2505
I1
tp6233
a(I780
I2
tp6234
a(I3844
I5
tp6235
a(I843
I2
tp6236
a(I2946
I2
tp6237
a(I3160
I1
tp6238
a(I4576
I0
tp6239
a(I119
I0
tp6240
a(I4454
I1
tp6241
a(I5023
I3
tp6242
a(I1373
I4
tp6243
a(I1946
I2
tp6244
a(I3361
I1
tp6245
a(I2497
I2
tp6246
a(I743
I3
tp6247
a(I4643
I2
tp6248
a(I4027
I1
tp6249
a(I5035
I4
tp6250
a(I1844
I3
tp6251
a(I845
I3
tp6252
a(I2618
I0
tp6253
a(I2805
I2
tp6254
a(I2353
I1
tp6255
a(I2668
I1
tp6256
a(I1334
I0
tp6257
a(I70
I3
tp6258
a(I348
I2
tp6259
a(I1331
I2
tp6260
a(I176
I0
tp6261
a(I3196
I1
tp6262
a(I1103
I0
tp6263
a(I1951
I2
tp6264
a(I64
I4
tp6265
a(I79
I4
tp6266
a(I1963
I2
tp6267
a(I269
I0
tp6268
a(I3071
I1
tp6269
aa(lp6270
(I70
I4
tp6271
a(I4699
I1
tp6272
a(I3361
I2
tp6273
a(I3109
I0
tp6274
a(I2618
I1
tp6275
a(I2668
I2
tp6276
a(I405
I2
tp6277
a(I1963
I3
tp6278
a(I348
I3
tp6279
a(I2548
I0
tp6280
a(I176
I1
tp6281
a(I3196
I2
tp6282
a(I2716
I1
tp6283
a(I3160
I2
tp6284
a(I2717
I4
tp6285
a(I269
I1
tp6286
a(I127
I0
tp6287
a(I4285
I5
tp6288
a(I820
I0
tp6289
a(I3006
I0
tp6290
a(I1755
I0
tp6291
a(I4838
I4
tp6292
a(I1637
I4
tp6293
a(I692
I4
tp6294
a(I809
I1
tp6295
a(I4788
I3
tp6296
a(I386
I0
tp6297
a(I2505
I2
tp6298
a(I843
I3
tp6299
a(I4118
I0
tp6300
a(I1103
I1
tp6301
a(I1986
I0
tp6302
a(I2291
I2
tp6303
a(I146
I0
tp6304
a(I2606
I0
tp6305
a(I119
I1
tp6306
a(I2353
I2
tp6307
a(I4027
I2
tp6308
a(I780
I3
tp6309
a(I3018
I2
tp6310
a(I4576
I1
tp6311
a(I4224
I0
tp6312
a(I3365
I0
tp6313
a(I4643
I3
tp6314
a(I5035
I5
tp6315
a(I5023
I4
tp6316
a(I3593
I0
tp6317
a(I3010
I1
tp6318
a(I4731
I0
tp6319
a(I743
I4
tp6320
a(I1852
I2
tp6321
a(I876
I4
tp6322
a(I2946
I3
tp6323
a(I3071
I2
tp6324
a(I1303
I1
tp6325
a(I859
I2
tp6326
a(I1844
I4
tp6327
a(I918
I0
tp6328
a(I2922
I2
tp6329
a(I4480
I1
tp6330
a(I267
I0
tp6331
a(I4000
I0
tp6332
a(I2037
I0
tp6333
a(I3789
I3
tp6334
a(I2403
I0
tp6335
a(I529
I0
tp6336
a(I425
I3
tp6337
a(I1334
I1
tp6338
a(I3031
I2
tp6339
a(I1783
I3
tp6340
a(I1845
I4
tp6341
a(I4454
I2
tp6342
a(I2662
I0
tp6343
a(I4257
I0
tp6344
aa(lp6345
(I4000
I1
tp6346
a(I1755
I1
tp6347
a(I3593
I1
tp6348
a(I809
I2
tp6349
a(I743
I5
tp6350
a(I2505
I3
tp6351
a(I4118
I1
tp6352
a(I386
I1
tp6353
a(I176
I2
tp6354
a(I4454
I3
tp6355
a(I2291
I3
tp6356
a(I405
I3
tp6357
a(I4027
I3
tp6358
a(I146
I1
tp6359
a(I1852
I3
tp6360
a(I4731
I1
tp6361
a(I1103
I2
tp6362
a(I1868
I0
tp6363
a(I4346
I0
tp6364
a(I2548
I1
tp6365
a(I2353
I3
tp6366
a(I3196
I3
tp6367
a(I2618
I2
tp6368
a(I2716
I2
tp6369
a(I1845
I5
tp6370
a(I267
I1
tp6371
a(I2668
I3
tp6372
a(I2037
I1
tp6373
a(I3071
I3
tp6374
a(I4065
I0
tp6375
a(I3160
I3
tp6376
a(I859
I3
tp6377
a(I4224
I1
tp6378
a(I1334
I2
tp6379
a(I269
I2
tp6380
a(I1178
I0
tp6381
a(I2662
I1
tp6382
a(I2403
I1
tp6383
a(I529
I1
tp6384
a(I1986
I1
tp6385
a(I3031
I3
tp6386
a(I2606
I1
tp6387
a(I3361
I3
tp6388
a(I119
I2
tp6389
a(I3109
I1
tp6390
a(I14
I0
tp6391
a(I4699
I2
tp6392
a(I4788
I4
tp6393
a(I3018
I3
tp6394
a(I4576
I2
tp6395
a(I1783
I4
tp6396
a(I1303
I2
tp6397
a(I3006
I1
tp6398
a(I1963
I4
tp6399
a(I478
I0
tp6400
a(I4257
I1
tp6401
a(I820
I1
tp6402
a(I3365
I1
tp6403
a(I2946
I4
tp6404
a(I985
I0
tp6405
a(I3010
I2
tp6406
a(I918
I1
tp6407
a(I2922
I3
tp6408
a(I4480
I2
tp6409
a(I127
I1
tp6410
aa(lp6411
(I2037
I2
tp6412
a(I478
I1
tp6413
a(I127
I2
tp6414
a(I1103
I3
tp6415
a(I267
I2
tp6416
a(I3006
I2
tp6417
a(I1303
I3
tp6418
a(I859
I4
tp6419
a(I4480
I3
tp6420
a(I3109
I2
tp6421
a(I4000
I2
tp6422
a(I3018
I4
tp6423
a(I4454
I4
tp6424
a(I3081
I0
tp6425
a(I918
I2
tp6426
a(I2922
I4
tp6427
a(I1963
I5
tp6428
a(I4065
I1
tp6429
a(I529
I2
tp6430
a(I14
I1
tp6431
a(I3077
I0
tp6432
a(I386
I2
tp6433
a(I4257
I2
tp6434
a(I4346
I1
tp6435
a(I146
I2
tp6436
a(I2548
I2
tp6437
a(I176
I3
tp6438
a(I3160
I4
tp6439
a(I405
I4
tp6440
a(I4118
I2
tp6441
a(I985
I1
tp6442
a(I2505
I4
tp6443
a(I4731
I2
tp6444
a(I4254
I0
tp6445
a(I1334
I3
tp6446
a(I3196
I4
tp6447
a(I1178
I1
tp6448
a(I3593
I2
tp6449
a(I2291
I4
tp6450
a(I119
I3
tp6451
a(I4027
I4
tp6452
a(I2542
I0
tp6453
a(I1986
I2
tp6454
a(I3010
I3
tp6455
a(I4576
I3
tp6456
a(I2606
I2
tp6457
a(I4224
I2
tp6458
a(I5005
I0
tp6459
a(I1636
I0
tp6460
aa(lp6461
(I4065
I2
tp6462
a(I4118
I3
tp6463
a(I2942
I0
tp6464
a(I4254
I1
tp6465
a(I1178
I2
tp6466
a(I2542
I1
tp6467
a(I2606
I3
tp6468
a(I3077
I1
tp6469
a(I1636
I1
tp6470
a(I4525
I0
tp6471
a(I3081
I1
tp6472
a(I3250
I0
tp6473
a(I4257
I3
tp6474
a(I3006
I3
tp6475
a(I478
I2
tp6476
a(I2519
I0
tp6477
a(I4480
I4
tp6478
a(I985
I2
tp6479
a(I4000
I3
tp6480
a(I918
I3
tp6481
a(I2922
I5
tp6482
a(I4956
I0
tp6483
a(I2037
I3
tp6484
a(I386
I3
tp6485
a(I4027
I5
tp6486
a(I4276
I0
tp6487
a(I5005
I1
tp6488
a(I146
I3
tp6489
a(I176
I4
tp6490
a(I4451
I0
tp6491
a(I4346
I2
tp6492
a(I3109
I3
tp6493
aa(lp6494
(I4525
I1
tp6495
a(I4544
I0
tp6496
a(I1882
I0
tp6497
a(I1340
I0
tp6498
a(I146
I4
tp6499
a(I2519
I1
tp6500
a(I985
I3
tp6501
a(I219
I0
tp6502
a(I2942
I1
tp6503
a(I2606
I4
tp6504
a(I2600
I0
tp6505
a(I1178
I3
tp6506
a(I532
I0
tp6507
a(I1636
I2
tp6508
a(I2542
I2
tp6509
a(I503
I0
tp6510
a(I3250
I1
tp6511
a(I5005
I2
tp6512
a(I492
I0
tp6513
a(I478
I3
tp6514
a(I4451
I1
tp6515
a(I4118
I4
tp6516
a(I4480
I5
tp6517
a(I4000
I4
tp6518
a(I3923
I0
tp6519
a(I4065
I3
tp6520
a(I918
I4
tp6521
a(I3081
I2
tp6522
a(I2271
I0
tp6523
a(I4254
I2
tp6524
a(I4276
I1
tp6525
a(I678
I0
tp6526
a(I1018
I0
tp6527
a(I4956
I1
tp6528
a(I3077
I2
tp6529
a(I386
I4
tp6530
aa(lp6531
(I3515
I0
tp6532
a(I2409
I0
tp6533
a(I219
I1
tp6534
a(I4391
I0
tp6535
a(I4254
I3
tp6536
a(I4276
I2
tp6537
a(I678
I1
tp6538
a(I2927
I0
tp6539
a(I3639
I0
tp6540
a(I4118
I5
tp6541
a(I956
I0
tp6542
a(I3199
I0
tp6543
a(I4544
I1
tp6544
a(I4451
I2
tp6545
a(I1018
I1
tp6546
a(I1882
I1
tp6547
a(I5005
I3
tp6548
a(I146
I5
tp6549
a(I2446
I0
tp6550
a(I1340
I1
tp6551
a(I503
I1
tp6552
a(I2271
I1
tp6553
a(I184
I0
tp6554
a(I3533
I0
tp6555
a(I2942
I2
tp6556
a(I2606
I5
tp6557
a(I2600
I1
tp6558
a(I538
I0
tp6559
a(I625
I0
tp6560
a(I3081
I3
tp6561
a(I532
I1
tp6562
a(I2295
I0
tp6563
a(I1636
I3
tp6564
a(I2542
I3
tp6565
a(I492
I1
tp6566
a(I406
I0
tp6567
a(I2858
I0
tp6568
a(I3077
I3
tp6569
a(I3923
I1
tp6570
a(I4525
I2
tp6571
a(I985
I4
tp6572
a(I3250
I2
tp6573
a(I898
I0
tp6574
a(I2519
I2
tp6575
a(I4956
I2
tp6576
a(I2573
I0
tp6577
a(I2040
I0
tp6578
a(I2189
I0
tp6579
a(I1124
I0
tp6580
aa(lp6581
(I492
I2
tp6582
a(I3250
I3
tp6583
a(I4451
I3
tp6584
a(I5005
I4
tp6585
a(I1636
I4
tp6586
a(I4956
I3
tp6587
a(I3923
I2
tp6588
a(I3081
I4
tp6589
a(I2040
I1
tp6590
a(I2927
I1
tp6591
a(I1124
I1
tp6592
a(I3533
I1
tp6593
a(I4276
I3
tp6594
a(I625
I1
tp6595
a(I898
I1
tp6596
a(I678
I2
tp6597
a(I956
I1
tp6598
a(I2271
I2
tp6599
a(I2295
I1
tp6600
a(I4544
I2
tp6601
a(I3077
I4
tp6602
a(I2446
I1
tp6603
a(I4525
I3
tp6604
a(I985
I5
tp6605
a(I3639
I1
tp6606
a(I1882
I2
tp6607
a(I2519
I3
tp6608
a(I503
I2
tp6609
a(I184
I1
tp6610
a(I219
I2
tp6611
a(I2600
I2
tp6612
a(I2189
I1
tp6613
a(I3515
I1
tp6614
a(I2409
I1
tp6615
a(I538
I1
tp6616
a(I1340
I2
tp6617
a(I2942
I3
tp6618
a(I2542
I4
tp6619
a(I4391
I1
tp6620
a(I1018
I2
tp6621
a(I2573
I1
tp6622
a(I2858
I1
tp6623
a(I532
I2
tp6624
a(I406
I1
tp6625
a(I3199
I1
tp6626
aa(lp6627
(I1067
I0
tp6628
aa.