(lp0
(lp1
I6
aI235
aI843
aI853
aI922
aI1354
aI1721
aI1785
aI1905
aI2494
aI2646
aI2698
aI2731
aI3896
aI3980
aI4208
aI5787
aI5885
aI6141
aI6236
aI6354
aI6443
aI7322
aI7435
aI7454
aI7628
aI7859
aI7947
aI7966
aI8488
aI8732
aI9193
aI9665
aI9798
aI9968
aI10582
aI10612
aI10631
aI10798
aI10967
aI11045
aI11449
aI11542
aI11807
aI11827
aI11942
aI12677
aI12909
aI13478
aa(lp2
I7
aI236
aI258
aI354
aI854
aI923
aI1224
aI1528
aI1630
aI1722
aI1786
aI1906
aI1989
aI2495
aI2699
aI2732
aI2939
aI2975
aI2997
aI3122
aI3159
aI3263
aI3981
aI4209
aI4284
aI4789
aI5322
aI5886
aI5949
aI6237
aI6355
aI6485
aI7186
aI7217
aI7323
aI7436
aI7455
aI7629
aI7904
aI7948
aI7967
aI7969
aI7996
aI8091
aI8127
aI8184
aI8322
aI8489
aI8498
aI8733
aI8903
aI9083
aI9178
aI9194
aI9239
aI9662
aI9671
aI9673
aI9799
aI9806
aI9985
aI10019
aI10060
aI10394
aI10613
aI10632
aI10839
aI10879
aI10887
aI11038
aI11227
aI11448
aI11450
aI11543
aI11828
aI11943
aI12329
aI12474
aI12748
aI12910
aI13385
aI13464
aI13479
aa(lp3
I18
aI130
aI131
aI270
aI399
aI474
aI491
aI502
aI541
aI571
aI616
aI617
aI705
aI790
aI820
aI1035
aI1064
aI1065
aI1256
aI1271
aI1273
aI1274
aI1481
aI1690
aI1718
aI1945
aI2073
aI2103
aI2172
aI2356
aI2453
aI2460
aI2513
aI2620
aI2663
aI2704
aI2733
aI2734
aI2808
aI2809
aI2810
aI2812
aI2894
aI2910
aI2922
aI2993
aI3111
aI3210
aI3351
aI3357
aI3358
aI3374
aI3417
aI3756
aI3930
aI3931
aI3955
aI3983
aI3984
aI4043
aI4044
aI4355
aI4356
aI4550
aI4560
aI4615
aI4617
aI4638
aI4747
aI4825
aI4863
aI4904
aI4966
aI5010
aI5312
aI5337
aI5348
aI5369
aI5370
aI5416
aI5418
aI5429
aI5447
aI5451
aI5469
aI5613
aI5614
aI5685
aI5758
aI5870
aI5871
aI5893
aI5894
aI5908
aI6080
aI6143
aI6176
aI6191
aI6192
aI6271
aI6281
aI6449
aI6471
aI6875
aI6968
aI6969
aI6991
aI7029
aI7115
aI7120
aI7154
aI7156
aI7175
aI7249
aI7407
aI7408
aI7410
aI7441
aI7570
aI7634
aI7815
aI7816
aI8124
aI8133
aI8238
aI8239
aI8289
aI8339
aI8361
aI8363
aI8375
aI8502
aI8553
aI8576
aI8577
aI8646
aI8786
aI8788
aI8902
aI8939
aI8967
aI9124
aI9125
aI9220
aI9243
aI9264
aI9265
aI9280
aI9281
aI9291
aI9447
aI9456
aI9508
aI9532
aI9568
aI9569
aI9612
aI9614
aI9652
aI9670
aI9758
aI9816
aI9939
aI9945
aI10108
aI10130
aI10160
aI10265
aI10299
aI10351
aI10491
aI10505
aI10585
aI10611
aI10635
aI10636
aI10806
aI10826
aI10827
aI10886
aI10973
aI11003
aI11039
aI11109
aI11203
aI11298
aI11501
aI11524
aI11526
aI11533
aI11534
aI11573
aI11575
aI11624
aI11814
aI11820
aI11821
aI11824
aI11869
aI11870
aI11918
aI12007
aI12075
aI12267
aI12314
aI12392
aI12402
aI12429
aI12461
aI12484
aI12519
aI12618
aI12626
aI12673
aI12710
aI12784
aI12786
aI12823
aI12903
aI13058
aI13065
aI13269
aI13469
aa(lp4
I19
aI42
aI192
aI229
aI288
aI310
aI348
aI400
aI475
aI584
aI677
aI694
aI747
aI757
aI821
aI893
aI1036
aI1190
aI1255
aI1552
aI1556
aI1582
aI1616
aI1662
aI1689
aI1775
aI1779
aI1841
aI1980
aI2161
aI2218
aI2228
aI2239
aI2245
aI2251
aI2260
aI2313
aI2357
aI2407
aI2422
aI2435
aI2512
aI2520
aI2532
aI2681
aI2722
aI2735
aI2811
aI2889
aI2891
aI2899
aI2911
aI2942
aI2989
aI3031
aI3080
aI3112
aI3118
aI3171
aI3221
aI3226
aI3297
aI3359
aI3361
aI3397
aI3416
aI3428
aI3439
aI3484
aI3599
aI3647
aI3705
aI3757
aI3783
aI3791
aI3829
aI3831
aI3883
aI3900
aI3940
aI3956
aI4118
aI4123
aI4162
aI4224
aI4323
aI4405
aI4430
aI4580
aI4616
aI4826
aI4840
aI4842
aI4862
aI4905
aI4906
aI4978
aI5038
aI5068
aI5139
aI5208
aI5217
aI5251
aI5308
aI5326
aI5338
aI5351
aI5404
aI5422
aI5425
aI5448
aI5461
aI5482
aI5484
aI5499
aI5575
aI5701
aI5707
aI5717
aI5759
aI5864
aI5909
aI5983
aI5986
aI6036
aI6042
aI6065
aI6140
aI6177
aI6272
aI6286
aI6436
aI6454
aI6612
aI6624
aI6642
aI6655
aI6670
aI6673
aI6700
aI6725
aI6733
aI6765
aI6808
aI6873
aI6874
aI6967
aI6970
aI7030
aI7147
aI7155
aI7181
aI7240
aI7339
aI7344
aI7376
aI7389
aI7397
aI7442
aI7445
aI7447
aI7531
aI7541
aI7571
aI7653
aI7662
aI7664
aI7680
aI7709
aI7719
aI7771
aI7793
aI7804
aI7808
aI7812
aI8030
aI8097
aI8105
aI8131
aI8134
aI8162
aI8174
aI8224
aI8229
aI8232
aI8364
aI8397
aI8439
aI8445
aI8503
aI8512
aI8590
aI8681
aI8746
aI8787
aI8807
aI8824
aI8901
aI8932
aI8940
aI8955
aI8985
aI9007
aI9069
aI9072
aI9088
aI9210
aI9221
aI9226
aI9229
aI9255
aI9308
aI9335
aI9365
aI9367
aI9424
aI9509
aI9563
aI9613
aI9649
aI9669
aI9683
aI9741
aI9750
aI9769
aI9812
aI9815
aI9913
aI9933
aI9940
aI9955
aI10008
aI10049
aI10054
aI10071
aI10086
aI10093
aI10107
aI10131
aI10181
aI10283
aI10320
aI10350
aI10356
aI10384
aI10494
aI10504
aI10517
aI10572
aI10602
aI10648
aI10735
aI10848
aI10867
aI10934
aI10938
aI10946
aI10996
aI11002
aI11004
aI11049
aI11059
aI11072
aI11108
aI11116
aI11196
aI11204
aI11299
aI11324
aI11326
aI11329
aI11330
aI11344
aI11377
aI11408
aI11410
aI11420
aI11434
aI11500
aI11525
aI11527
aI11535
aI11574
aI11625
aI11642
aI11650
aI11672
aI11706
aI11815
aI11825
aI11879
aI11895
aI11917
aI11937
aI11939
aI11983
aI12008
aI12061
aI12184
aI12200
aI12265
aI12288
aI12319
aI12365
aI12386
aI12424
aI12432
aI12518
aI12531
aI12533
aI12617
aI12640
aI12649
aI12662
aI12708
aI12711
aI12728
aI12737
aI12785
aI12844
aI12876
aI12961
aI12994
aI13057
aI13066
aI13099
aI13141
aI13151
aI13308
aI13356
aI13413
aI13493
aa(lp5
I24
aI239
aI564
aI613
aI800
aI824
aI1369
aI1620
aI1887
aI1895
aI2114
aI2136
aI2498
aI2815
aI2909
aI2941
aI3495
aI4285
aI4603
aI4714
aI4790
aI5325
aI5347
aI5401
aI5740
aI5964
aI6261
aI6453
aI6514
aI6905
aI7174
aI8034
aI9179
aI9197
aI9240
aI9801
aI10007
aI10220
aI10840
aI11433
aI12207
aI12639
aI12751
aI12839
aI12963
aI13316
aI13387
aI13400
aa(lp6
I25
aI546
aI801
aI2701
aI2868
aI4342
aI4715
aI4867
aI5216
aI5306
aI5965
aI6444
aI6965
aI8035
aI8678
aI9666
aI12493
aI13481
aa(lp7
I61
aI63
aI65
aI96
aI98
aI121
aI123
aI150
aI198
aI220
aI302
aI304
aI435
aI481
aI483
aI487
aI604
aI606
aI696
aI734
aI735
aI769
aI772
aI837
aI844
aI889
aI904
aI905
aI907
aI908
aI943
aI945
aI969
aI977
aI981
aI1040
aI1048
aI1086
aI1087
aI1110
aI1148
aI1150
aI1157
aI1180
aI1181
aI1183
aI1185
aI1340
aI1342
aI1351
aI1352
aI1372
aI1449
aI1450
aI1483
aI1491
aI1494
aI1621
aI1744
aI1746
aI1762
aI1856
aI1858
aI1860
aI1861
aI1864
aI1866
aI1926
aI1928
aI1930
aI1982
aI1984
aI2034
aI2057
aI2123
aI2124
aI2130
aI2131
aI2141
aI2143
aI2307
aI2328
aI2405
aI2471
aI2608
aI2609
aI2740
aI2758
aI2760
aI2762
aI2771
aI2817
aI2818
aI2824
aI2838
aI2907
aI2927
aI2985
aI3009
aI3018
aI3204
aI3205
aI3248
aI3295
aI3304
aI3314
aI3315
aI3344
aI3376
aI3407
aI3410
aI3452
aI3454
aI3483
aI3532
aI3534
aI3650
aI3824
aI3826
aI3962
aI3987
aI4155
aI4156
aI4295
aI4307
aI4309
aI4448
aI4528
aI4529
aI4530
aI4542
aI4544
aI4569
aI4699
aI4701
aI4703
aI4913
aI4970
aI5002
aI5097
aI5126
aI5136
aI5137
aI5185
aI5317
aI5318
aI5388
aI5394
aI5395
aI5460
aI5470
aI5508
aI5509
aI5550
aI5562
aI5564
aI5566
aI5567
aI5588
aI5648
aI5649
aI5663
aI5681
aI5723
aI5736
aI5824
aI5825
aI5826
aI5832
aI5834
aI5835
aI5836
aI5872
aI5904
aI6021
aI6111
aI6151
aI6160
aI6205
aI6263
aI6265
aI6351
aI6352
aI6410
aI6412
aI6413
aI6414
aI6426
aI6432
aI6450
aI6503
aI6578
aI6581
aI6690
aI6691
aI6723
aI6763
aI6783
aI6884
aI6885
aI6928
aI6937
aI6951
aI7098
aI7105
aI7151
aI7209
aI7211
aI7223
aI7224
aI7267
aI7270
aI7278
aI7290
aI7291
aI7312
aI7356
aI7392
aI7453
aI7678
aI7679
aI7769
aI7807
aI8081
aI8083
aI8179
aI8182
aI8183
aI8187
aI8189
aI8260
aI8295
aI8307
aI8342
aI8345
aI8412
aI8459
aI8461
aI8507
aI8528
aI8569
aI8643
aI8725
aI8776
aI8809
aI8828
aI8862
aI8863
aI8890
aI8911
aI8931
aI8973
aI9087
aI9107
aI9109
aI9167
aI9168
aI9215
aI9216
aI9279
aI9289
aI9330
aI9474
aI9475
aI9479
aI9481
aI9499
aI9502
aI9556
aI9559
aI9609
aI9674
aI9680
aI9708
aI9833
aI9834
aI9841
aI9844
aI9846
aI9925
aI10037
aI10044
aI10069
aI10070
aI10073
aI10074
aI10075
aI10077
aI10142
aI10143
aI10180
aI10293
aI10294
aI10482
aI10533
aI10583
aI10592
aI10656
aI10667
aI10793
aI10838
aI10853
aI10854
aI10863
aI10870
aI10921
aI10922
aI10929
aI10933
aI10950
aI10951
aI10978
aI10979
aI11052
aI11053
aI11089
aI11092
aI11093
aI11129
aI11131
aI11141
aI11155
aI11165
aI11198
aI11199
aI11229
aI11259
aI11357
aI11359
aI11368
aI11370
aI11398
aI11415
aI11443
aI11515
aI11616
aI11652
aI11654
aI11675
aI11713
aI11720
aI11788
aI11796
aI11797
aI11798
aI11822
aI11823
aI11858
aI12078
aI12079
aI12095
aI12203
aI12205
aI12217
aI12219
aI12250
aI12315
aI12316
aI12362
aI12374
aI12376
aI12409
aI12410
aI12471
aI12481
aI12495
aI12497
aI12546
aI12556
aI12583
aI12585
aI12595
aI12653
aI12654
aI12655
aI12695
aI12809
aI12831
aI12855
aI12884
aI12885
aI13114
aI13190
aI13192
aI13196
aI13202
aI13207
aI13209
aI13212
aI13287
aI13351
aI13352
aI13375
aI13377
aI13458
aI13460
aa(lp8
I62
aI64
aI66
aI97
aI99
aI122
aI149
aI197
aI199
aI219
aI221
aI303
aI305
aI436
aI482
aI484
aI488
aI605
aI741
aI770
aI836
aI845
aI855
aI890
aI942
aI944
aI978
aI1041
aI1046
aI1049
aI1051
aI1071
aI1088
aI1147
aI1149
aI1156
aI1158
aI1182
aI1184
aI1341
aI1353
aI1358
aI1361
aI1373
aI1482
aI1492
aI1622
aI1745
aI1747
aI1763
aI1857
aI1859
aI1865
aI1927
aI1929
aI1983
aI2005
aI2058
aI2121
aI2142
aI2317
aI2329
aI2406
aI2470
aI2472
aI2527
aI2759
aI2761
aI2825
aI2839
aI2908
aI2928
aI2983
aI3019
aI3202
aI3249
aI3251
aI3296
aI3305
aI3343
aI3375
aI3377
aI3409
aI3411
aI3453
aI3455
aI3482
aI3533
aI3535
aI3651
aI3657
aI3823
aI3825
aI3963
aI3985
aI4308
aI4310
aI4353
aI4543
aI4568
aI4570
aI4673
aI4700
aI4702
aI4704
aI4914
aI4971
aI5003
aI5098
aI5114
aI5125
aI5127
aI5138
aI5186
aI5389
aI5412
aI5444
aI5471
aI5548
aI5563
aI5565
aI5568
aI5589
aI5682
aI5724
aI5737
aI5779
aI5833
aI5837
aI5905
aI6014
aI6112
aI6159
aI6161
aI6204
aI6206
aI6262
aI6264
aI6266
aI6344
aI6411
aI6427
aI6451
aI6504
aI6579
aI6722
aI6724
aI6764
aI6929
aI6936
aI6938
aI6950
aI7099
aI7104
aI7106
aI7122
aI7210
aI7271
aI7313
aI7354
aI7391
aI7393
aI7438
aI7452
aI7806
aI7872
aI8082
aI8084
aI8188
aI8190
aI8296
aI8343
aI8344
aI8356
aI8376
aI8460
aI8462
aI8508
aI8530
aI8570
aI8775
aI8777
aI8810
aI8829
aI8864
aI8891
aI8974
aI9108
aI9110
aI9290
aI9322
aI9476
aI9480
aI9500
aI9503
aI9557
aI9558
aI9560
aI9610
aI9675
aI9681
aI9707
aI9842
aI9845
aI9847
aI9926
aI9999
aI10038
aI10045
aI10076
aI10328
aI10361
aI10483
aI10530
aI10534
aI10579
aI10584
aI10593
aI10654
aI10668
aI10669
aI10794
aI10836
aI10869
aI10871
aI10930
aI10932
aI11088
aI11090
aI11130
aI11132
aI11153
aI11156
aI11166
aI11200
aI11216
aI11228
aI11260
aI11358
aI11399
aI11414
aI11416
aI11516
aI11617
aI11653
aI11712
aI11714
aI11721
aI11789
aI11793
aI11849
aI11857
aI11859
aI12094
aI12096
aI12180
aI12202
aI12204
aI12206
aI12218
aI12251
aI12363
aI12375
aI12377
aI12457
aI12480
aI12482
aI12494
aI12496
aI12547
aI12557
aI12582
aI12584
aI12594
aI12646
aI12694
aI12808
aI12810
aI12856
aI12883
aI12886
aI12982
aI13115
aI13191
aI13197
aI13201
aI13208
aI13213
aI13286
aI13376
aI13378
aI13447
aI13457
aI13459
aI13463
aa(lp9
I76
aI138
aI177
aI278
aI930
aI961
aI1017
aI1379
aI1452
aI1618
aI1661
aI1816
aI2104
aI2664
aI3138
aI3418
aI3720
aI4091
aI4390
aI5019
aI5166
aI5254
aI5343
aI5344
aI5427
aI5503
aI5903
aI6315
aI6393
aI6529
aI7101
aI7579
aI8059
aI9097
aI9371
aI9776
aI9779
aI10090
aI10163
aI10591
aI10662
aI10999
aI11174
aI11214
aI11248
aI11293
aI11428
aI11724
aI11860
aI11995
aI12634
aI12791
aI12882
aI13046
aI13090
aa(lp10
I77
aI139
aI2105
aI3514
aI7580
aI8798
aI9993
aI11105
aI11861
aI12952
aI13240
aa(lp11
I84
aI470
aI858
aI1264
aI1335
aI1563
aI1570
aI2542
aI2802
aI3663
aI3730
aI3857
aI4777
aI4940
aI6185
aI6461
aI6551
aI6956
aI7279
aI7645
aI7854
aI8038
aI8514
aI9123
aI9360
aI9701
aI10720
aI11780
aI12170
aI12275
aI12773
aI12987
aa(lp12
I86
aI206
aI681
aI1143
aI1262
aI1811
aI1839
aI2324
aI3053
aI3408
aI4133
aI4157
aI4433
aI5793
aI6129
aI6399
aI6817
aI6841
aI8141
aI8384
aI8516
aI8543
aI9092
aI9583
aI9808
aI9931
aI10135
aI11555
aI12115
aI12172
aI12520
aI12698
aI12725
aI12989
aI13145
aa(lp13
I87
aI207
aI1263
aI1840
aI4158
aI4434
aI5794
aI6400
aI8517
aI9809
aI10376
aI10876
aI13122
aa(lp14
I101
aI119
aI153
aI155
aI210
aI211
aI295
aI306
aI364
aI365
aI417
aI516
aI599
aI600
aI736
aI759
aI760
aI761
aI804
aI813
aI870
aI938
aI970
aI1073
aI1245
aI1295
aI1307
aI1332
aI1375
aI1468
aI1476
aI1526
aI1551
aI1565
aI1623
aI1688
aI1719
aI1749
aI1764
aI1802
aI1810
aI1889
aI1890
aI1931
aI1955
aI2003
aI2012
aI2021
aI2080
aI2221
aI2308
aI2310
aI2311
aI2323
aI2364
aI2473
aI2529
aI2564
aI2578
aI2606
aI2612
aI2661
aI2712
aI2878
aI2929
aI2951
aI3060
aI3091
aI3235
aI3253
aI3379
aI3402
aI3536
aI3539
aI3540
aI3541
aI3653
aI3717
aI3797
aI3808
aI3809
aI3863
aI3932
aI3998
aI4071
aI4074
aI4291
aI4297
aI4303
aI4566
aI4567
aI4573
aI4632
aI4675
aI4690
aI4725
aI4771
aI4809
aI4889
aI4890
aI4937
aI4943
aI4962
aI4963
aI4999
aI5000
aI5100
aI5118
aI5119
aI5128
aI5167
aI5195
aI5196
aI5199
aI5226
aI5267
aI5269
aI5270
aI5315
aI5480
aI5569
aI5651
aI5652
aI5653
aI5741
aI5777
aI5889
aI5890
aI5891
aI5939
aI6146
aI6148
aI6149
aI6172
aI6220
aI6233
aI6242
aI6273
aI6297
aI6491
aI6501
aI6543
aI6544
aI6561
aI6567
aI6659
aI6777
aI6836
aI6856
aI6857
aI6868
aI6924
aI6998
aI7006
aI7007
aI7015
aI7016
aI7031
aI7032
aI7142
aI7143
aI7157
aI7338
aI7440
aI7492
aI7506
aI7549
aI7637
aI7685
aI7732
aI7756
aI7767
aI7857
aI7866
aI7874
aI7884
aI8103
aI8164
aI8265
aI8299
aI8371
aI8400
aI8415
aI8423
aI8531
aI8567
aI8571
aI8572
aI8661
aI8662
aI8693
aI8701
aI8709
aI8710
aI8717
aI8763
aI8800
aI8815
aI8830
aI8928
aI8975
aI8997
aI9018
aI9030
aI9070
aI9075
aI9105
aI9129
aI9132
aI9144
aI9190
aI9218
aI9368
aI9413
aI9586
aI9605
aI9710
aI9725
aI9748
aI9774
aI9835
aI9843
aI9886
aI9894
aI9895
aI9923
aI9975
aI9976
aI9978
aI9987
aI9990
aI10176
aI10201
aI10202
aI10203
aI10205
aI10244
aI10317
aI10318
aI10330
aI10373
aI10420
aI10428
aI10437
aI10506
aI10512
aI10581
aI10599
aI10619
aI10620
aI10671
aI10775
aI11070
aI11162
aI11217
aI11261
aI11269
aI11577
aI11586
aI11608
aI11609
aI11618
aI11722
aI11772
aI11791
aI11805
aI11882
aI11890
aI11985
aI12060
aI12098
aI12103
aI12119
aI12126
aI12212
aI12213
aI12270
aI12352
aI12357
aI12379
aI12450
aI12454
aI12459
aI12483
aI12587
aI12726
aI12846
aI12871
aI12887
aI12946
aI12955
aI12979
aI12984
aI13012
aI13023
aI13108
aI13159
aI13199
aI13210
aI13271
aI13346
aa(lp15
I110
aI156
aI166
aI276
aI438
aI739
aI847
aI1348
aI1433
aI1855
aI1875
aI2378
aI2557
aI2836
aI3061
aI3401
aI4151
aI4292
aI4944
aI5292
aI5553
aI6562
aI6620
aI6648
aI7063
aI7758
aI7842
aI8027
aI8200
aI8894
aI9202
aI9214
aI9408
aI9724
aI9949
aI10245
aI10653
aI11081
aI11150
aI12381
aI12789
aI12832
aI12942
aa(lp16
I37
aI78
aI140
aI389
aI576
aI724
aI1169
aI1251
aI1758
aI1828
aI1867
aI1891
aI1954
aI2106
aI2125
aI2152
aI2258
aI2553
aI2756
aI2789
aI3420
aI3725
aI4025
aI4398
aI4422
aI4800
aI4822
aI5679
aI5721
aI5734
aI6110
aI6467
aI6922
aI7102
aI7368
aI7581
aI7778
aI7945
aI7986
aI8327
aI8799
aI8831
aI9272
aI9947
aI9994
aI10118
aI10396
aI11190
aI11240
aI11493
aI11635
aI11708
aI11731
aI11785
aI11835
aI11862
aI11986
aI12242
aI12901
aI13078
aI13241
aa(lp17
I38
aI79
aI141
aI373
aI390
aI577
aI740
aI758
aI962
aI998
aI1032
aI1136
aI1166
aI1252
aI1355
aI1362
aI1399
aI1484
aI1499
aI1583
aI1666
aI1759
aI1782
aI1829
aI1868
aI2119
aI2126
aI2219
aI2259
aI2287
aI2399
aI2539
aI2757
aI2779
aI2790
aI2813
aI2937
aI2966
aI3160
aI3287
aI3298
aI3522
aI3524
aI3619
aI3841
aI3961
aI4423
aI4463
aI4621
aI4689
aI4801
aI4841
aI5483
aI5490
aI5616
aI5680
aI5722
aI5735
aI5753
aI5950
aI6118
aI6468
aI6613
aI6701
aI6718
aI6766
aI6923
aI6972
aI7103
aI7237
aI7369
aI7836
aI7852
aI7937
aI7946
aI7987
aI8121
aI8132
aI8223
aI8225
aI8247
aI8291
aI8328
aI8578
aI8682
aI8832
aI8915
aI9063
aI9146
aI9183
aI9425
aI9452
aI9684
aI9777
aI9904
aI9948
aI10104
aI10119
aI10397
aI10495
aI10860
aI10868
aI10903
aI11107
aI11191
aI11241
aI11247
aI11435
aI11536
aI11651
aI11847
aI11863
aI11940
aI11987
aI12062
aI12066
aI12201
aI12243
aI12289
aI12306
aI12330
aI12641
aI12826
aI12877
aI12902
aI12954
aI12962
aI13079
aI13242
aI13309
aI13420
aI13437
aa(lp18
I142
aI193
aI286
aI289
aI290
aI311
aI349
aI374
aI401
aI585
aI612
aI695
aI885
aI894
aI1033
aI1060
aI1191
aI1278
aI1356
aI1363
aI1517
aI1553
aI1584
aI1617
aI1663
aI1667
aI1776
aI1830
aI1842
aI1943
aI1981
aI2162
aI2229
aI2240
aI2246
aI2252
aI2261
aI2314
aI2315
aI2408
aI2423
aI2436
aI2533
aI2682
aI2736
aI2780
aI2890
aI2892
aI2900
aI2912
aI2943
aI2967
aI3032
aI3081
aI3096
aI3119
aI3222
aI3227
aI3272
aI3360
aI3362
aI3398
aI3429
aI3440
aI3485
aI3523
aI3525
aI3577
aI3648
aI3784
aI3792
aI3830
aI3832
aI3842
aI3901
aI3941
aI4010
aI4050
aI4119
aI4163
aI4324
aI4406
aI4415
aI4431
aI4581
aI4622
aI4727
aI4802
aI4843
aI4907
aI4979
aI5039
aI5069
aI5209
aI5252
aI5327
aI5405
aI5423
aI5426
aI5462
aI5485
aI5491
aI5500
aI5519
aI5522
aI5576
aI5617
aI5702
aI5923
aI5984
aI5987
aI6022
aI6037
aI6043
aI6066
aI6165
aI6287
aI6437
aI6455
aI6486
aI6614
aI6643
aI6656
aI6671
aI6726
aI6734
aI6809
aI6973
aI7182
aI7194
aI7238
aI7241
aI7340
aI7398
aI7446
aI7448
aI7532
aI7542
aI7665
aI7710
aI7730
aI7805
aI7813
aI7853
aI7938
aI7997
aI8086
aI8163
aI8230
aI8233
aI8248
aI8398
aI8446
aI8463
aI8513
aI8591
aI8683
aI8747
aI8808
aI8825
aI8933
aI8986
aI9064
aI9073
aI9089
aI9147
aI9227
aI9256
aI9309
aI9336
aI9366
aI9394
aI9426
aI9510
aI9564
aI9581
aI9650
aI9651
aI9742
aI9770
aI9778
aI9813
aI9905
aI9914
aI9934
aI9941
aI9956
aI10009
aI10055
aI10072
aI10087
aI10094
aI10105
aI10262
aI10284
aI10321
aI10377
aI10385
aI10496
aI10518
aI10573
aI10649
aI10861
aI10880
aI10904
aI10939
aI10947
aI11005
aI11050
aI11060
aI11117
aI11197
aI11325
aI11327
aI11345
aI11378
aI11409
aI11411
aI11421
aI11472
aI11537
aI11626
aI11643
aI11673
aI11880
aI11896
aI11938
aI11941
aI11984
aI11989
aI12009
aI12067
aI12266
aI12290
aI12320
aI12366
aI12387
aI12425
aI12433
aI12532
aI12534
aI12642
aI12663
aI12709
aI12738
aI12827
aI12845
aI13100
aI13357
aI13414
aI13421
aI13494
aa(lp19
I120
aI151
aI517
aI825
aI1022
aI1800
aI2122
aI4376
aI5445
aI5620
aI5650
aI5662
aI5974
aI6133
aI6292
aI6816
aI7123
aI7268
aI7474
aI9326
aI9587
aI9825
aI9883
aI10078
aI10309
aI10531
aI10786
aI10983
aI12507
aa(lp20
I100
aI152
aI742
aI826
aI1023
aI1331
aI1374
aI1525
aI1801
aI2079
aI2220
aI2488
aI2528
aI3252
aI3796
aI4296
aI4302
aI4354
aI4377
aI4674
aI4724
aI5124
aI5225
aI5621
aI5975
aI6181
aI6293
aI6566
aI7054
aI7124
aI7269
aI7337
aI7439
aI7505
aI7733
aI7744
aI7844
aI7865
aI7873
aI9709
aI9749
aI9961
aI10310
aI10329
aI10427
aI10447
aI10532
aI10607
aI10670
aI10776
aI10787
aI10940
aI10980
aI11576
aI11790
aI12284
aI12458
aI12508
aI12870
aI12983
aI13275
aa(lp21
I111
aI167
aI1434
aI2797
aI2837
aI3062
aI3818
aI4077
aI4293
aI4557
aI4945
aI6563
aI6742
aI7254
aI8403
aI8999
aI9257
aI9304
aI9497
aI10208
aI10246
aI11151
aI12919
aa(lp22
I12
aI35
aI146
aI180
aI244
aI360
aI540
aI618
aI754
aI793
aI798
aI886
aI991
aI1686
aI1754
aI1768
aI2295
aI2614
aI2959
aI3025
aI3441
aI3560
aI3596
aI3609
aI4060
aI4063
aI4236
aI4623
aI4873
aI4953
aI5156
aI5441
aI5489
aI5659
aI5672
aI5695
aI6278
aI6282
aI6312
aI6406
aI6496
aI6553
aI6754
aI6762
aI7258
aI7705
aI7903
aI8301
aI8348
aI8464
aI8542
aI8636
aI8794
aI9054
aI9203
aI9273
aI9285
aI9359
aI9794
aI9891
aI10112
aI10182
aI10184
aI10344
aI10429
aI10473
aI10760
aI10993
aI11055
aI11308
aI11733
aI11948
aI11966
aI12087
aI12151
aI12238
aI12554
aI12650
aI13004
aI13133
aI13177
aI13332
aI13344
aI13362
aa(lp23
I36
aI181
aI312
aI361
aI385
aI619
aI799
aI992
aI1500
aI1687
aI1769
aI2312
aI2615
aI2770
aI3597
aI3875
aI4070
aI4362
aI5145
aI6283
aI6497
aI6654
aI6699
aI6881
aI7533
aI9055
aI9802
aI10183
aI10349
aI10625
aI11949
aI12555
aI13345
aa(lp24
I59
aI172
aI202
aI223
aI287
aI291
aI424
aI512
aI622
aI716
aI751
aI1873
aI2048
aI2076
aI2118
aI2138
aI2144
aI2165
aI2282
aI2288
aI2293
aI2388
aI2776
aI3001
aI3010
aI3126
aI3244
aI3627
aI3878
aI4194
aI4277
aI4493
aI4512
aI4737
aI4847
aI5072
aI5077
aI5233
aI5339
aI5358
aI5512
aI5530
aI5625
aI5727
aI5812
aI6013
aI6323
aI6417
aI6539
aI6735
aI7190
aI7239
aI7364
aI7597
aI7979
aI8062
aI8625
aI8887
aI9209
aI9410
aI9457
aI9545
aI9824
aI10109
aI10232
aI10342
aI11468
aI11897
aI12260
aI12418
aI12423
aI12526
aI12539
aI12792
aI12997
aI13029
aI13298
aI13416
aI13453
aa(lp25
I1144
aI2225
aI2514
aI4299
aI6130
aI6842
aI7751
aI8308
aI9093
aI9584
aI11104
aI11839
aI12173
aI12277
aI12699
aI12990
aI13146
aI13482
aa(lp26
I28
aI216
aI4058
aI10400
aI12298
aI12467
aa(lp27
I60
aI173
aI203
aI224
aI425
aI513
aI572
aI691
aI752
aI1242
aI1440
aI2077
aI2145
aI2283
aI2289
aI2294
aI2331
aI2658
aI2773
aI2995
aI3011
aI3245
aI3628
aI3939
aI4195
aI4453
aI4791
aI4848
aI5340
aI5359
aI5626
aI5813
aI5961
aI5997
aI6005
aI6211
aI6324
aI6371
aI6540
aI6736
aI7110
aI7219
aI7365
aI7377
aI7585
aI7598
aI7932
aI7980
aI8165
aI8195
aI8547
aI9296
aI9458
aI9719
aI10110
aI10252
aI10343
aI10750
aI10849
aI11302
aI11321
aI12419
aI12793
aI12943
aI13094
aI13423
aI13454
aa(lp28
I144
aI231
aI300
aI317
aI342
aI403
aI477
aI563
aI712
aI822
aI1126
aI1189
aI1234
aI1843
aI1847
aI2263
aI2426
aI2522
aI2725
aI3075
aI3082
aI3121
aI3167
aI3274
aI3353
aI3363
aI3527
aI3924
aI4051
aI4164
aI4198
aI4226
aI4260
aI4471
aI4665
aI4858
aI4897
aI5035
aI5281
aI5424
aI5486
aI5501
aI5521
aI5593
aI5703
aI5712
aI5790
aI5854
aI5938
aI5985
aI6070
aI6456
aI6661
aI6674
aI7087
aI7136
aI7184
aI7242
aI7450
aI7451
aI7544
aI7573
aI7601
aI7640
aI7726
aI7774
aI7814
aI8399
aI8449
aI8506
aI8592
aI8616
aI8738
aI8827
aI8917
aI9009
aI9065
aI9120
aI9137
aI9201
aI9230
aI9348
aI9404
aI9427
aI9745
aI9752
aI9814
aI10010
aI10191
aI10372
aI10457
aI10498
aI10665
aI10835
aI10862
aI10907
aI10959
aI11007
aI11101
aI11236
aI11243
aI11257
aI11265
aI11301
aI11328
aI11346
aI11347
aI11405
aI11644
aI11674
aI11676
aI11683
aI12186
aI12535
aI12918
aI13048
aI13067
aI13290
aI13399
aI13496
aa(lp29
I562
aI2816
aI5739
aI5788
aI7849
aI8340
aI11432
aI11694
aI12768
aa(lp30
I8
aI22
aI26
aI237
aI547
aI802
aI924
aI1225
aI1723
aI1787
aI2023
aI2112
aI2134
aI2496
aI2700
aI2976
aI2998
aI3123
aI3241
aI3264
aI3920
aI4210
aI4844
aI4868
aI5323
aI5510
aI5789
aI6060
aI7218
aI7437
aI7850
aI7968
aI8036
aI8185
aI8323
aI8341
aI8742
aI8904
aI9195
aI9663
aI9672
aI9746
aI9800
aI9807
aI9986
aI10020
aI10248
aI10395
aI10633
aI10709
aI10888
aI11451
aI11544
aI11829
aI11871
aI12475
aI12849
aI12911
aI13041
aI13050
aI13131
aI13295
aI13314
aI13386
aI13465
aI13480
aa(lp31
I249
aI5155
aI6546
aI7703
aI7731
aI12307
aa(lp32
I15
aI16
aI45
aI106
aI107
aI268
aI398
aI427
aI473
aI505
aI570
aI614
aI615
aI641
aI673
aI674
aI750
aI788
aI789
aI965
aI968
aI1006
aI1121
aI1194
aI1270
aI1272
aI1487
aI1716
aI1717
aI2061
aI2230
aI2231
aI2383
aI2452
aI2459
aI2618
aI2619
aI2662
aI2702
aI2703
aI2805
aI2806
aI2869
aI2870
aI2921
aI2992
aI3108
aI3109
aI3110
aI3174
aI3209
aI3217
aI3257
aI3258
aI3350
aI3356
aI3372
aI3459
aI3755
aI3795
aI3799
aI3927
aI3928
aI3954
aI3982
aI4040
aI4041
aI4096
aI4097
aI4254
aI4255
aI4478
aI4548
aI4549
aI4614
aI4636
aI4692
aI4746
aI4748
aI4857
aI5009
aI5247
aI5311
aI5374
aI5375
aI5413
aI5414
aI5417
aI5428
aI5446
aI5450
aI5505
aI5683
aI5684
aI5757
aI5823
aI5867
aI6083
aI6089
aI6142
aI6171
aI6424
aI6425
aI6448
aI6469
aI6470
aI6597
aI6796
aI6990
aI7114
aI7119
aI7311
aI7359
aI7405
aI7409
aI7424
aI7521
aI7796
aI7912
aI8236
aI8288
aI8325
aI8326
aI8362
aI8419
aI8501
aI8534
aI8535
aI8552
aI8575
aI8611
aI8617
aI8680
aI9292
aI9293
aI9455
aI9507
aI9514
aI9515
aI9679
aI9755
aI9756
aI9937
aI9959
aI10063
aI10158
aI10159
aI10221
aI10222
aI10263
aI10264
aI10490
aI10623
aI10805
aI10825
aI10859
aI10885
aI10893
aI10915
aI10971
aI10972
aI11201
aI11202
aI11242
aI11385
aI11400
aI11401
aI11532
aI11819
aI11856
aI11934
aI11979
aI12002
aI12003
aI12004
aI12021
aI12246
aI12249
aI12313
aI12390
aI12401
aI12428
aI12627
aI12670
aI12671
aI12779
aI12821
aI12897
aI12904
aI12905
aI13017
aI13033
aI13193
aI13289
aa(lp33
I6019
aI8279
aI8297
aI8529
aI9068
aI9165
aI9315
aI11794
aa(lp34
I315
aI340
aI1187
aI1284
aI1286
aI1694
aI1821
aI2099
aI2188
aI2347
aI2747
aI3290
aI3368
aI3384
aI3400
aI3464
aI3669
aI3959
aI4245
aI4541
aI4893
aI4895
aI5198
aI5259
aI5591
aI5719
aI5762
aI5936
aI6637
aI7126
aI7318
aI7713
aI7722
aI8927
aI9049
aI9199
aI9334
aI9417
aI9420
aI9422
aI9443
aI9591
aI9657
aI9690
aI9735
aI9917
aI10141
aI10226
aI10257
aI10833
aI10897
aI10943
aI11318
aI11334
aI11629
aI11749
aI12514
aI12559
aI12798
aI13119
aa(lp35
I320
aI493
aI1337
aI1403
aI1559
aI2085
aI2785
aI3325
aI4440
aI4981
aI4987
aI5802
aI5989
aI6364
aI7250
aI7263
aI8457
aI8719
aI10616
aI10734
aI11143
aI11656
aI12264
aI12476
aI13342
aa(lp36
I9
aI27
aI57
aI227
aI247
aI356
aI620
aI645
aI823
aI925
aI1138
aI1384
aI1530
aI1531
aI1619
aI1788
aI1894
aI2024
aI2074
aI2113
aI2115
aI2116
aI2159
aI2163
aI2216
aI2497
aI2814
aI2842
aI2956
aI3072
aI3114
aI3115
aI3124
aI3211
aI3727
aI3876
aI3921
aI4319
aI4490
aI4491
aI4735
aI4845
aI5014
aI5112
aI5140
aI5307
aI5324
aI5927
aI5963
aI6018
aI6061
aI6106
aI6234
aI6260
aI6321
aI6415
aI6416
aI6452
aI6495
aI6513
aI6677
aI6824
aI6966
aI7457
aI7851
aI7899
aI7950
aI7971
aI8180
aI8324
aI9077
aI9207
aI9607
aI9711
aI10096
aI10249
aI10279
aI10303
aI10340
aI10568
aI10608
aI10634
aI10710
aI11452
aI12271
aI12523
aI12537
aI12667
aI12669
aI12851
aI12912
aI12969
aI13042
aI13083
aI13092
aI13093
aI13315
aI13411
aa(lp37
I240
aI248
aI357
aI621
aI646
aI1200
aI1235
aI1385
aI1658
aI1735
aI1907
aI2067
aI2075
aI2117
aI2160
aI2217
aI2281
aI2387
aI2519
aI2843
aI2884
aI2931
aI2958
aI3116
aI3125
aI3747
aI3877
aI4087
aI4276
aI4736
aI5015
aI5113
aI5141
aI5511
aI6107
aI6235
aI6322
aI6360
aI6825
aI7363
aI8181
aI8886
aI9208
aI9409
aI9608
aI9817
aI10079
aI10177
aI10378
aI10524
aI10908
aI10952
aI11144
aI11429
aI12272
aI12422
aI12538
aI12913
aI12923
aI12970
aI13329
aI13412
aa(lp38
I1
aI69
aI135
aI242
aI381
aI1123
aI1277
aI2054
aI3633
aI3913
aI4067
aI4779
aI4811
aI5302
aI5710
aI6792
aI6946
aI6977
aI7078
aI7133
aI7636
aI7876
aI7985
aI8360
aI8982
aI9091
aI9435
aI10149
aI10454
aI10664
aI11314
aI11641
aI11685
aI11947
aI13003
aI13016
aI13326
aI13467
aa(lp39
I431
aI434
aI498
aI1039
aI1081
aI1359
aI1791
aI1819
aI2322
aI2739
aI2984
aI3008
aI3203
aI3782
aI3816
aI3945
aI3986
aI5549
aI5766
aI6270
aI6782
aI7046
aI7355
aI8053
aI8306
aI8479
aI8598
aI8724
aI8782
aI8837
aI8861
aI8870
aI9840
aI10218
aI10362
aI10655
aI10837
aI11154
aI11352
aI11442
aI11560
aI11719
aI12191
aI12719
aI12830
aI12941
aI13431
aa(lp40
I112
aI158
aI440
aI1050
aI1083
aI3063
aI3405
aI3584
aI4294
aI4774
aI6423
aI6601
aI6603
aI6622
aI6743
aI9973
aI10209
aI10445
aI11078
aI11152
aI12834
aa(lp41
I445
aI462
aI573
aI1151
aI1175
aI1514
aI1664
aI2332
aI2443
aI2659
aI2774
aI3002
aI3129
aI3246
aI3636
aI4100
aI4506
aI4508
aI5057
aI5058
aI5411
aI5827
aI5998
aI6212
aI6372
aI6475
aI6692
aI6883
aI7824
aI7917
aI8196
aI8317
aI8329
aI8548
aI8549
aI9111
aI9297
aI9391
aI9525
aI9867
aI10714
aI10822
aI10850
aI11379
aI11743
aI11969
aI12331
aI12756
aI12906
aI13278
aa(lp42
I443
aI446
aI574
aI1117
aI1152
aI1665
aI2210
aI3247
aI4101
aI4507
aI5059
aI5075
aI5085
aI5828
aI5999
aI6474
aI7918
aI8173
aI9250
aI9526
aI9868
aI10872
aI10874
aI11380
aI11596
aI11899
aI12757
aI13419
aa(lp43
I460
aI575
aI1010
aI1173
aI3415
aI3637
aI4003
aI5240
aI5409
aI5674
aI7915
aI8137
aI8220
aI8221
aI8256
aI8796
aI9629
aI10615
aI11011
aI11390
aI11585
aI11658
aI11668
aI12965
aI13181
aa(lp44
I996
aI5745
aI5874
aI8802
aI11071
aa(lp45
I508
aI948
aI1451
aI1995
aI2009
aI2340
aI3467
aI3480
aI3581
aI4110
aI4329
aI4384
aI4442
aI4983
aI5060
aI5221
aI5342
aI5481
aI5747
aI6439
aI7555
aI7694
aI7738
aI7908
aI7909
aI8720
aI8812
aI8866
aI9282
aI9445
aI10013
aI10316
aI11888
aI12147
aI12968
aa(lp46
I73
aI506
aI509
aI690
aI946
aI1808
aI1920
aI2156
aI2275
aI3095
aI3424
aI3481
aI3521
aI3582
aI4330
aI4331
aI4404
aI4443
aI5222
aI5435
aI5746
aI5896
aI7081
aI7198
aI7265
aI7889
aI7926
aI8054
aI8217
aI8285
aI8564
aI9100
aI9803
aI9858
aI10014
aI10354
aI10363
aI10460
aI10538
aI11122
aI11136
aI12148
aI12498
aI12544
aI12723
aI13249
aa(lp47
I115
aI125
aI186
aI264
aI352
aI469
aI530
aI535
aI655
aI703
aI796
aI816
aI833
aI875
aI917
aI953
aI983
aI986
aI1056
aI1096
aI1106
aI1113
aI1137
aI1207
aI1229
aI1230
aI1314
aI1327
aI1423
aI1480
aI1586
aI1626
aI1649
aI1711
aI1936
aI2055
aI2180
aI2197
aI2199
aI2205
aI2548
aI2605
aI2643
aI2649
aI2683
aI2840
aI2882
aI2933
aI2935
aI2977
aI3036
aI3038
aI3046
aI3085
aI3103
aI3128
aI3188
aI3220
aI3292
aI3309
aI3381
aI3512
aI3537
aI3601
aI3641
aI3702
aI3763
aI3775
aI3776
aI3779
aI3790
aI3844
aI3856
aI3911
aI3993
aI3994
aI4137
aI4166
aI4205
aI4228
aI4243
aI4338
aI4470
aI4524
aI4546
aI4572
aI4577
aI4630
aI4643
aI4664
aI4707
aI4854
aI5054
aI5107
aI5231
aI5346
aI5350
aI5368
aI5400
aI5574
aI5612
aI5619
aI5754
aI5806
aI5914
aI6001
aI6092
aI6145
aI6208
aI6229
aI6250
aI6259
aI6335
aI6343
aI6348
aI6361
aI6466
aI6585
aI6635
aI6705
aI6712
aI6776
aI6918
aI6921
aI6980
aI7011
aI7058
aI7083
aI7109
aI7201
aI7244
aI7353
aI7402
aI7417
aI7473
aI7594
aI7614
aI7633
aI7718
aI7811
aI7883
aI7977
aI7999
aI8176
aI8211
aI8228
aI8338
aI8452
aI8470
aI8554
aI8602
aI8603
aI8675
aI8705
aI8804
aI8948
aI9026
aI9029
aI9150
aI9175
aI9352
aI9373
aI9401
aI9454
aI9535
aI9552
aI9594
aI9640
aI9697
aI9871
aI9903
aI9946
aI9967
aI10026
aI10157
aI10393
aI10422
aI10435
aI10450
aI10521
aI10560
aI10562
aI10676
aI10699
aI10718
aI10768
aI10785
aI10804
aI10809
aI10810
aI10852
aI10920
aI10949
aI10977
aI11032
aI11087
aI11103
aI11173
aI11426
aI11592
aI11665
aI11810
aI11916
aI11936
aI11999
aI12017
aI12039
aI12074
aI12257
aI12262
aI12263
aI12342
aI12456
aI12491
aI12600
aI12604
aI12802
aI12842
aI12937
aI12974
aI12978
aI13009
aI13054
aI13168
aI13227
aI13388
aI13402
aI13462
aI13476
aa(lp48
I116
aI265
aI353
aI531
aI954
aI1107
aI1208
aI1328
aI1712
aI2056
aI2198
aI2255
aI2650
aI3538
aI3602
aI4048
aI4167
aI4547
aI5108
aI5615
aI6981
aI7615
aI7782
aI7978
aI8000
aI8526
aI8555
aI9574
aI10719
aI11752
aI12588
aI12843
aI12938
aI12975
aa(lp49
I234
aI465
aI544
aI892
aI1250
aI1886
aI2396
aI2637
aI5355
aI8033
aI9098
aI10536
aI10797
aI10818
aI12310
aI12486
aI13061
aI13477
aa(lp50
I545
aI1988
aI2638
aI3838
aI4501
aI5384
aI7385
aI7568
aI9082
aI9099
aI9661
aI10227
aI12487
aI13322
aa(lp51
I95
aI451
aI633
aI714
aI861
aI863
aI974
aI1075
aI1734
aI1940
aI2439
aI2926
aI2947
aI3028
aI3741
aI3853
aI4009
aI4278
aI4593
aI4757
aI4770
aI5930
aI5956
aI5994
aI6075
aI6190
aI6479
aI6481
aI8044
aI8871
aI8876
aI9186
aI9224
aI9436
aI9602
aI9644
aI9890
aI10154
aI10240
aI10578
aI10866
aI10906
aI11014
aI11019
aI11291
aI12123
aI12161
aI12165
aI12208
aI12334
aI12403
aI12492
aI13028
aI13068
aI13173
aI13331
aa(lp52
I634
aI839
aI1937
aI2504
aI3834
aI3953
aI4758
aI4872
aI5201
aI5749
aI8045
aI8047
aI8249
aI8316
aI8872
aI8897
aI9131
aI9223
aI9225
aI9233
aI10155
aI10216
aI11015
aI11581
aI11959
aI12404
aa(lp53
I657
aI1329
aI1425
aI2850
aI3040
aI3087
aI3294
aI4207
aI4579
aI4645
aI5756
aI6231
aI6288
aI6350
aI6363
aI6982
aI8213
aI8907
aI9177
aI10452
aI13360
aa(lp54
I29
aI658
aI1330
aI1505
aI5809
aI6933
aI6983
aI8066
aI8194
aI8970
aI9874
aI11754
aI11787
aI13361
aa(lp55
I428
aI643
aI675
aI2062
aI2386
aI2807
aI2871
aI3175
aI3259
aI3373
aI3887
aI4387
aI4637
aI4693
aI5248
aI5415
aI7028
aI8537
aI8618
aI9516
aI9757
aI9938
aI9960
aI11312
aI11981
aI11982
aI12006
aI12391
aI12629
aI12672
aI12822
aI13018
aa(lp56
I71
aI507
aI688
aI1031
aI1405
aI1806
aI2008
aI2154
aI3093
aI3422
aI3500
aI3580
aI3969
aI4012
aI4328
aI4402
aI5431
aI6200
aI7196
aI7199
aI7691
aI7798
aI8691
aI8811
aI10012
aI10352
aI10492
aI11317
aI12721
aI12815
aa(lp57
I698
aI1231
aI3658
aI4994
aI5780
aI6015
aI6033
aI6099
aI6347
aI9828
aI10000
aI10484
aI12364
aI13254
aa(lp58
I298
aI708
aI947
aI1154
aI1316
aI1378
aI1773
aI2041
aI2264
aI3154
aI3466
aI3614
aI4438
aI5457
aI5675
aI5902
aI6319
aI6438
aI7056
aI7554
aI8078
aI8621
aI8865
aI8880
aI12465
aI12706
aI12881
aI13045
aI13237
aa(lp59
I679
aI719
aI746
aI1323
aI1885
aI2278
aI2856
aI8069
aI11068
aI12287
aa(lp60
I721
aI1266
aI1572
aI2149
aI2192
aI2981
aI3569
aI3859
aI5860
aI5942
aI6716
aI6958
aI7588
aI7994
aI8659
aI9066
aI10684
aI10722
aI11342
aI11553
aI11728
aI11914
aI12040
aI12051
aI12397
aI13055
aI13381
aa(lp61
I49
aI92
aI164
aI554
aI598
aI624
aI636
aI730
aI1093
aI1203
aI1467
aI1589
aI1685
aI2480
aI2485
aI3207
aI3544
aI3559
aI3604
aI3606
aI3690
aI3840
aI3908
aI4028
aI4203
aI4497
aI4553
aI4742
aI5178
aI5211
aI5282
aI5535
aI5537
aI5631
aI5633
aI5838
aI5931
aI5933
aI6032
aI6059
aI6123
aI6156
aI6158
aI6199
aI6311
aI6517
aI6630
aI6993
aI7153
aI7525
aI8484
aI8836
aI9152
aI9433
aI9463
aI9641
aI9693
aI9740
aI9763
aI10145
aI10153
aI10175
aI10233
aI10413
aI10414
aI10523
aI10658
aI10984
aI10986
aI11137
aI11187
aI11523
aI12323
aI12685
aI12713
aI13040
aI13136
aa(lp62
I93
aI371
aI449
aI463
aI631
aI664
aI731
aI1656
aI1938
aI2092
aI2437
aI3026
aI3486
aI4229
aI4321
aI5364
aI5770
aI6941
aI6994
aI8313
aI8761
aI8873
aI9642
aI9731
aI9928
aI10864
aI11138
aI11167
aI11289
aI11877
aI12070
aI12163
aI12324
aI13025
aI13059
aa(lp63
I407
aI743
aI2660
aI4555
aI6026
aI6740
aI8914
aI9074
aI9682
aI9827
aI10479
aI10788
aI12509
aI12586
aa(lp64
I408
aI418
aI717
aI737
aI744
aI814
aI1720
aI1883
aI1956
aI2004
aI2022
aI2565
aI2607
aI2613
aI2675
aI2854
aI2930
aI3718
aI3864
aI4075
aI4574
aI4676
aI4691
aI4775
aI4938
aI5200
aI5268
aI5316
aI5570
aI5940
aI6027
aI6492
aI6502
aI6549
aI6837
aI6925
aI6999
aI7158
aI7550
aI7643
aI7768
aI7885
aI8067
aI8098
aI8532
aI8702
aI8749
aI8764
aI9031
aI9071
aI9121
aI9130
aI9133
aI9145
aI9191
aI9369
aI9606
aI9726
aI9767
aI9924
aI9979
aI10421
aI10507
aI10513
aI10563
aI10637
aI10789
aI11163
aI11587
aI12120
aI12285
aI12932
aI12947
aI12956
aI12980
aI13109
aI13211
aI13347
aa(lp65
I406
aI525
aI640
aI777
aI1254
aI1429
aI1967
aI2030
aI2169
aI2414
aI2906
aI3164
aI3201
aI3478
aI3897
aI3997
aI4399
aI4688
aI5541
aI5706
aI6098
aI6584
aI7652
aI8649
aI10092
aI11181
aI11340
aa(lp66
I307
aI625
aI682
aI683
aI810
aI882
aI971
aI1605
aI1731
aI2247
aI3346
aI4502
aI4503
aI4646
aI4647
aI5162
aI5406
aI5466
aI5840
aI5951
aI5952
aI6071
aI6072
aI6187
aI6801
aI7380
aI7487
aI8431
aI8473
aI8474
aI8987
aI8988
aI9469
aI9910
aI10067
aI10068
aI10331
aI10332
aI10381
aI10844
aI10845
aI12111
aI12158
aI12220
aI12221
aI12335
aa(lp67
I118
aI515
aI827
aI2821
aI3189
aI3678
aI4378
aI4730
aI5639
aI5776
aI5966
aI6048
aI6500
aI6806
aI6876
aI7745
aI8125
aI8593
aI8971
aI9258
aI9585
aI9595
aI9617
aI9885
aI9899
aI10448
aI10594
aI10604
aI11645
aI12010
aI12080
aa(lp68
I611
aI828
aI872
aI4604
aI5967
aI6296
aI6807
aI7468
aI7746
aI8126
aI8594
aI8972
aI9596
aI9900
aI10595
aI10982
aI11771
aI12011
aa(lp69
I4
aI163
aI841
aI2449
aI2506
aI2729
aI3206
aI3228
aI3547
aI3978
aI4215
aI4216
aI4741
aI4786
aI4864
aI5751
aI5883
aI6441
aI6507
aI6508
aI6768
aI6851
aI6962
aI7152
aI7524
aI7649
aI7846
aI8486
aI8521
aI9819
aI9911
aI10057
aI10325
aI10412
aI10522
aI10657
aI10965
aI10974
aI11476
aI11477
aI11802
aI11960
aI11961
aI12322
aI12899
aI13112
aa(lp70
I3345
aI3950
aI3973
aI4410
aI10382
aI13216
aI13339
aa(lp71
I124
aI263
aI422
aI529
aI534
aI815
aI952
aI982
aI1055
aI1112
aI1228
aI1313
aI1395
aI1479
aI1585
aI1625
aI1710
aI1736
aI2178
aI2196
aI2203
aI2204
aI2429
aI2546
aI2567
aI2932
aI2934
aI3035
aI3045
aI3127
aI3380
aI3511
aI3598
aI3640
aI3699
aI3701
aI3762
aI3855
aI3992
aI4165
aI4337
aI4523
aI4545
aI4571
aI4642
aI4663
aI4706
aI5053
aI5345
aI5349
aI5367
aI5495
aI5637
aI5805
aI5913
aI6000
aI6144
aI6465
aI6634
aI6641
aI6704
aI6711
aI6822
aI6917
aI7010
aI7047
aI7082
aI7108
aI7200
aI7243
aI7394
aI7395
aI7400
aI7416
aI7428
aI7472
aI7475
aI7632
aI7717
aI7810
aI7882
aI7988
aI7998
aI8175
aI8210
aI8227
aI8241
aI8601
aI8888
aI8947
aI9294
aI9372
aI9385
aI9400
aI9453
aI9483
aI9551
aI9593
aI9902
aI9966
aI10025
aI10197
aI10434
aI10561
aI10675
aI10689
aI10698
aI10767
aI10784
aI10828
aI10948
aI11000
aI11031
aI11307
aI11425
aI11591
aI11664
aI11809
aI12073
aI12261
aI12340
aI12801
aI12973
aI13008
aI13157
aI13427
aI13475
aa(lp72
I686
aI1029
aI1498
aI1532
aI1924
aI2053
aI2624
aI3912
aI5502
aI6389
aI6619
aI6750
aI7762
aI8841
aI9172
aI9597
aI9689
aI9861
aI11292
aI11315
aI11926
aI12569
aI13015
aa(lp73
I4348
aI6911
aI9316
aI11258
aI12854
aa(lp74
I1044
aI1647
aI3179
aI4993
aI5184
aI5744
aI5831
aI6370
aI6669
aI7146
aI7150
aI7666
aI9164
aI9329
aI9832
aI9854
aI11337
aI12608
aI12645
aI12764
aa(lp75
I979
aI1045
aI2006
aI3180
aI3412
aI8527
aI10039
aa(lp76
I53
aI1057
aI1101
aI1401
aI1424
aI1951
aI2849
aI2978
aI3039
aI3086
aI3293
aI3575
aI3700
aI4206
aI4339
aI4578
aI4644
aI4961
aI4986
aI5187
aI5689
aI5755
aI5879
aI6230
aI6349
aI6362
aI6902
aI7396
aI7828
aI8212
aI9176
aI9685
aI10212
aI10451
aI10830
aI10856
aI11008
aI13258
aI13307
aa(lp77
I1062
aI2920
aI11413
aI12344
aa(lp78
I642
aI1007
aI1063
aI2384
aI7388
aI8536
aI9388
aI9565
aI9944
aI11311
aI12628
aI13032
aa(lp79
I39
aI995
aI1068
aI1707
aI1878
aI2381
aI3021
aI3266
aI3406
aI3697
aI3812
aI4957
aI5123
aI6087
aI6604
aI6623
aI7053
aI7963
aI8021
aI8203
aI8850
aI9022
aI11084
aI12283
aI12835
aI13274
aa(lp80
I301
aI330
aI367
aI453
aI552
aI728
aI781
aI785
aI787
aI864
aI880
aI1091
aI1201
aI1427
aI1587
aI1728
aI1914
aI2250
aI2271
aI2373
aI3079
aI3143
aI3212
aI3273
aI3278
aI3337
aI3366
aI3673
aI3716
aI4223
aI4320
aI4551
aI5148
aI5192
aI5498
aI5554
aI5644
aI5657
aI5694
aI6030
aI6121
aI6175
aI6499
aI6713
aI6830
aI7176
aI7180
aI7205
aI7213
aI7617
aI7803
aI7898
aI7905
aI7907
aI7993
aI8013
aI8455
aI8482
aI8743
aI9053
aI9238
aI9431
aI9550
aI10103
aI10172
aI10275
aI10280
aI10500
aI10569
aI10741
aI10746
aI10796
aI11178
aI11541
aI11607
aI11851
aI11874
aI12294
aI12563
aI12574
aI12893
aI13189
aI13214
aI13219
aI13223
aI13268
aa(lp81
I253
aI285
aI468
aI702
aI1099
aI1105
aI1178
aI1179
aI1306
aI1568
aI1823
aI1991
aI2881
aI3043
aI3068
aI3084
aI3600
aI3607
aI3774
aI4227
aI5638
aI6078
aI6091
aI6249
aI6276
aI6302
aI6644
aI7048
aI7476
aI7976
aI8293
aI8294
aI8651
aI8674
aI8889
aI9314
aI9468
aI10129
aI10156
aI10211
aI10407
aI10829
aI10851
aI10919
aI11001
aI11086
aI11102
aI11867
aI11935
aI12016
aI12661
aI12676
aI12716
aI13305
aI13401
aa(lp82
I184
aI252
aI284
aI327
aI467
aI528
aI637
aI701
aI794
aI951
aI957
aI1104
aI1111
aI1204
aI1695
aI1966
aI1990
aI2177
aI2202
aI2545
aI2549
aI2566
aI2647
aI2913
aI3083
aI3328
aI3777
aI3854
aI3909
aI4242
aI4247
aI4575
aI4662
aI4705
aI4852
aI4869
aI5228
aI5276
aI5373
aI5379
aI5396
aI5494
aI5618
aI5698
aI5728
aI5767
aI6077
aI6090
aI6248
aI6251
aI6340
aI6341
aI6473
aI6919
aI7128
aI7168
aI7399
aI7471
aI7477
aI7481
aI7809
aI8226
aI8240
aI8368
aI8373
aI8450
aI8650
aI9032
aI9482
aI9901
aI10024
aI10519
aI10558
aI10626
aI10729
aI10781
aI11030
aI11085
aI11209
aI11565
aI11659
aI11755
aI11808
aI11866
aI12015
aI12072
aI12339
aI12367
aI12656
aI12800
aI12935
aI12976
aI13007
aI13053
aI13426
aI13474
aa(lp83
I1116
aI1441
aI2509
aI4238
aI4454
aI5526
aI7039
aI7586
aI7626
aI8166
aI8395
aI11461
aI11595
aa(lp84
I437
aI697
aI1239
aI1475
aI1863
aI2876
aI3250
aI4090
aI4265
aI4969
aI4972
aI5738
aI6113
aI7107
aI8262
aI8264
aI10040
aI10485
aI11091
aI12356
aa(lp85
I3
aI43
aI143
aI266
aI383
aI396
aI402
aI568
aI748
aI963
aI966
aI1034
aI1061
aI1119
aI1125
aI1192
aI1268
aI1485
aI1512
aI1513
aI1609
aI1831
aI2059
aI2253
aI2254
aI2262
aI2316
aI2425
aI2724
aI2749
aI2829
aI2893
aI2901
aI2919
aI2990
aI3033
aI3034
aI3097
aI3120
aI3172
aI3215
aI3223
aI3370
aI3371
aI3430
aI3431
aI3630
aI3649
aI3753
aI3793
aI3884
aI4069
aI4290
aI4325
aI4432
aI4476
aI4634
aI4855
aI4901
aI4980
aI5040
aI5070
aI5261
aI5309
aI5520
aI5523
aI5577
aI5713
aI5821
aI5865
aI6069
aI6166
aI6169
aI6589
aI6672
aI6794
aI6810
aI6974
aI6975
aI6979
aI7072
aI7135
aI7159
aI7183
aI7357
aI7403
aI7422
aI7444
aI7507
aI7519
aI7543
aI7658
aI7773
aI7794
aI7939
aI8136
aI8231
aI8380
aI8447
aI8448
aI8505
aI8748
aI8826
aI8956
aI8984
aI9148
aI9149
aI9180
aI9228
aI9310
aI9311
aI9337
aI9419
aI9511
aI9677
aI9771
aI9906
aI9919
aI9935
aI9957
aI10061
aI10106
aI10285
aI10357
aI10371
aI10387
aI10388
aI10497
aI10621
aI10640
aI10650
aI10834
aI10857
aI10913
aI11118
aI11256
aI11320
aI11383
aI11530
aI11539
aI11600
aI11631
aI11881
aI11932
aI11990
aI12000
aI12244
aI12247
aI12311
aI12321
aI12388
aI12399
aI12426
aI12561
aI12739
aI12777
aI12819
aI12917
aI13422
aI13495
aa(lp86
I185
aI328
aI351
aI795
aI1195
aI1196
aI1206
aI1569
aI1648
aI1824
aI2179
aI2430
aI2547
aI2568
aI2648
aI3037
aI3044
aI3219
aI3317
aI3703
aI3778
aI3843
aI3910
aI4204
aI4248
aI4249
aI4576
aI4853
aI5151
aI5230
aI5611
aI5636
aI5768
aI6079
aI6342
aI6775
aI6920
aI7401
aI7429
aI7612
aI7613
aI8652
aI8704
aI9295
aI9534
aI10027
aI10449
aI10520
aI10559
aI10808
aI11661
aI12256
aI12341
aI12455
aI12936
aI12977
aI13022
aI13163
aI13164
aI13461
aa(lp87
I1211
aI1654
aI4177
aI7062
aI7097
aI9881
aI10033
aI11220
aI11268
aI12032
aI12102
aI12615
aa(lp88
I1025
aI1212
aI1655
aI2176
aI2303
aI2753
aI3612
aI3722
aI4178
aI4564
aI4712
aI5022
aI6044
aI6849
aI6892
aI7638
aI8120
aI8205
aI8253
aI8281
aI9153
aI9622
aI9882
aI10418
aI11044
aI11389
aI11763
aI12085
aI12353
aI12505
aI12548
aI12616
aa(lp89
I852
aI1078
aI1222
aI1460
aI1987
aI2393
aI2469
aI3089
aI4500
aI4641
aI4723
aI4799
aI4965
aI5028
aI5383
aI5421
aI5598
aI5820
aI6353
aI6732
aI6940
aI7285
aI7384
aI7421
aI7567
aI7965
aI9192
aI9341
aI9345
aI9544
aI9660
aI9664
aI9788
aI10048
aI10630
aI11225
aI11826
aI12050
aI12069
aI12408
aI12543
aI12625
aI12691
aI13072
aI13321
aa(lp90
I561
aI1223
aI1799
aI2867
aI4187
aI4836
aI5604
aI6509
aI9984
aI10059
aI11447
aa(lp91
I902
aI1238
aI4089
aI8209
aa(lp92
I706
aI879
aI1281
aI1370
aI1592
aI2082
aI2243
aI2666
aI2879
aI2944
aI3299
aI4102
aI5245
aI5899
aI6788
aI7670
aI7734
aI8149
aI9298
aI9785
aI10687
aI10748
aI11176
aI11250
aI13312
aa(lp93
I1299
aI1560
aI4036
aI6365
aI6695
aI10364
aI12545
aI13343
aa(lp94
I1300
aI1639
aI4037
aI6289
aI6696
aI10365
aa(lp95
I283
aI420
aI778
aI950
aI1103
aI1131
aI1168
aI1304
aI1311
aI1344
aI1550
aI1598
aI1837
aI2110
aI2338
aI2427
aI2970
aI3041
aI3392
aI3772
aI3888
aI4131
aI4520
aI4655
aI4661
aI4912
aI5275
aI5356
aI5578
aI6308
aI6587
aI7287
aI7959
aI8978
aI9263
aI9377
aI10127
aI10917
aI11211
aI11742
aI12862
aa(lp96
I350
aI421
aI1305
aI1312
aI1567
aI1599
aI1835
aI1838
aI2428
aI3042
aI3218
aI3773
aI3889
aI5229
aI5357
aI5579
aI5609
aI6095
aI6588
aI6640
aI6774
aI6790
aI6863
aI7288
aI7584
aI7611
aI8703
aI9467
aI9533
aI10128
aI10196
aI10660
aI10807
aI11212
aI12863
aI13304
aI13436
aa(lp97
I102
aI154
aI1333
aI1477
aI1478
aI1527
aI1561
aI1913
aI1932
aI2081
aI2222
aI2530
aI2579
aI3254
aI3661
aI3798
aI4298
aI4556
aI4726
aI5120
aI5227
aI5666
aI6147
aI6183
aI6221
aI6298
aI6435
aI6778
aI7008
aI7858
aI7875
aI8416
aI8573
aI8694
aI9219
aI9836
aI9991
aI10480
aI10600
aI11079
aI11792
aI11806
aI12099
aI12104
aI12127
aI12460
aI12510
aI12872
aI13013
aI13200
aa(lp98
I108
aI255
aI274
aI334
aI1346
aI1853
aI1992
aI2359
aI2555
aI2592
aI2744
aI2794
aI2877
aI2965
aI3395
aI3564
aI4072
aI4107
aI4522
aI4721
aI4828
aI4838
aI4977
aI5090
aI5453
aI5479
aI5547
aI5551
aI5797
aI5957
aI6153
aI6710
aI6805
aI6814
aI7486
aI7540
aI7840
aI7896
aI7990
aI8017
aI8032
aI8438
aI8697
aI8834
aI8892
aI9057
aI9212
aI9301
aI9406
aI9494
aI9604
aI9616
aI10125
aI10266
aI10306
aI10691
aI10705
aI10892
aI11147
aI11148
aI11498
aI11504
aI11865
aI12139
aI12438
aI12787
aI12891
aI13120
aI13229
aI13285
aa(lp99
I1458
aI2093
aI3446
aI7433
aI8411
aI8924
aI9232
aI9387
aI10646
aI11838
aI12780
aI13354
aa(lp100
I1459
aI2089
aI3447
aI5303
aI8689
aI10647
aI13355
aa(lp101
I46
aI128
aI647
aI661
aI766
aI1128
aI1197
aI1464
aI1543
aI1682
aI2063
aI2352
aI2463
aI2570
aI2575
aI2727
aI3013
aI3017
aI3055
aI3139
aI3148
aI3365
aI3590
aI3870
aI3989
aI4358
aI4407
aI4416
aI4754
aI5385
aI5516
aI5725
aI5859
aI5977
aI6029
aI6194
aI7014
aI7090
aI7272
aI7500
aI7605
aI7741
aI7928
aI8064
aI8523
aI8654
aI8655
aI9016
aI9084
aI9320
aI9460
aI9624
aI9760
aI10171
aI10545
aI10547
aI10968
aI10991
aI11177
aI11184
aI11361
aI11520
aI12107
aI13037
aI13439
aa(lp102
I47
aI129
aI648
aI662
aI987
aI1465
aI1683
aI1792
aI2064
aI2353
aI2571
aI2728
aI3014
aI3140
aI3149
aI3990
aI4117
aI4408
aI4602
aI4679
aI4950
aI6195
aI7091
aI7273
aI7674
aI7742
aI7929
aI8524
aI9017
aI9625
aI9761
aI10151
aI10486
aI10548
aI10992
aI11478
aI11521
aI11766
aI12108
aI13038
aI13440
aa(lp103
I31
aI660
aI832
aI874
aI1095
aI1422
aI1507
aI1549
aI1644
aI1902
aI2550
aI3225
aI3332
aI3504
aI3579
aI3789
aI3867
aI4148
aI4180
aI4182
aI4272
aI4816
aI5333
aI5493
aI5973
aI6258
aI6706
aI6828
aI6866
aI6935
aI7461
aI8337
aI8434
aI8977
aI9128
aI9396
aI10405
aI11027
aI11741
aI11907
aI12092
aI12464
aI13021
aI13171
aI13281
aI13393
aI13490
aa(lp104
I68
aI277
aI929
aI1218
aI1293
aI1534
aI1660
aI2273
aI3307
aI3492
aI3517
aI3520
aI3719
aI3861
aI4888
aI5020
aI5160
aI5165
aI5213
aI5220
aI5253
aI6392
aI6446
aI6752
aI7100
aI7924
aI8007
aI8215
aI8359
aI8843
aI8964
aI9370
aI9775
aI9804
aI9863
aI9908
aI10042
aI10089
aI10526
aI10590
aI10661
aI10956
aI10998
aI11213
aI11313
aI11427
aI11640
aI11723
aI11887
aI11946
aI11992
aI12416
aI12633
aI12769
aI12790
aI12804
aI13247
aa(lp105
I579
aI773
aI1320
aI1326
aI1641
aI2949
aI3100
aI3161
aI3869
aI4590
aI4883
aI6681
aI6908
aI7207
aI7246
aI7349
aI7630
aI7887
aI8274
aI8334
aI8647
aI9571
aI10389
aI11509
aI11561
aI11812
aI12517
aI12592
aa(lp106
I1321
aI1642
aI1845
aI3101
aI3132
aI3865
aI4034
aI4130
aI4814
aI4884
aI6093
aI6909
aI7631
aI7922
aI8335
aI9572
aI10085
aI10390
aI10557
aI11699
aI12593
aa(lp107
I355
aI1529
aI2940
aI3494
aI7970
aI9189
aI12637
aI12749
aa(lp108
I6020
aI8298
aI8357
aI8413
aI8912
aI11795
aa(lp109
I1315
aI1522
aI1659
aI1772
aI2040
aI2083
aI2541
aI2583
aI2679
aI2755
aI3465
aI5456
aI7328
aI8123
aI8150
aI8481
aI8620
aI8879
aI9299
aI9492
aI9553
aI9781
aI10051
aI11572
aI11952
aI12146
aI12705
aa(lp110
I413
aI891
aI1249
aI1797
aI2392
aI2448
aI2468
aI3088
aI3676
aI4499
aI4640
aI4722
aI4798
aI4834
aI4964
aI5257
aI5382
aI5420
aI5819
aI6939
aI7284
aI8177
aI9340
aI9344
aI9787
aI10047
aI10255
aI10535
aI10944
aI11018
aI11061
aI12068
aI12229
aI12309
aI12407
aI12542
aI12624
aI12690
aa(lp111
I72
aI494
aI689
aI1807
aI2155
aI3094
aI3423
aI3518
aI4403
aI4982
aI5803
aI5895
aI6127
aI7197
aI7264
aI7303
aI7925
aI8216
aI8833
aI8844
aI9857
aI10353
aI11127
aI11135
aI12155
aI12722
aI12744
aI13248
aa(lp112
I1812
aI3267
aI4134
aI5622
aI8544
aI9158
aI12116
aI13075
aa(lp113
I878
aI1813
aI2515
aI3268
aI4135
aI4300
aI8309
aI8545
aI9159
aI10877
aI11840
aI12117
aI13076
aI13483
aa(lp114
I2133
aI3704
aI3706
aI3891
aI4124
aI4196
aI4818
aI6167
aI8085
aI12445
aa(lp115
I603
aI3029
aI3394
aI4784
aI10651
aa(lp116
I134
aI1874
aI1909
aI2886
aI2987
aI9411
aI9546
aI10179
aI11231
aI11469
aI11898
aI12925
aa(lp117
I299
aI1027
aI1922
aI2267
aI3470
aI6387
aI6617
aI7085
aI7760
aI9023
aI9170
aI9555
aI10289
aI12567
aI12678
aI12948
aa(lp118
I1455
aI3822
aI3914
aI6345
aI9998
aa(lp119
I319
aI476
aI492
aI504
aI967
aI1120
aI1275
aI1336
aI1402
aI1919
aI1947
aI2084
aI2344
aI2358
aI2784
aI3113
aI3216
aI3238
aI3510
aI3802
aI4335
aI4366
aI4465
aI4477
aI4752
aI4856
aI5449
aI5504
aI5540
aI5822
aI5910
aI5988
aI6082
aI6120
aI6170
aI6178
aI6590
aI6596
aI6971
aI7140
aI7193
aI7308
aI7390
aI7508
aI7688
aI7869
aI8122
aI8365
aI8456
aI8679
aI8885
aI8963
aI9003
aI9104
aI9181
aI9222
aI9254
aI9363
aI9578
aI9678
aI9730
aI9920
aI10132
aI10259
aI10551
aI10603
aI10622
aI10733
aI10914
aI10997
aI11142
aI11384
aI11487
aI11655
aI11707
aI11855
aI11933
aI11991
aI12001
aI12025
aI12057
aI12304
aI12351
aI12704
aI12778
aI12860
aI12896
aI13251
aa(lp120
I745
aI1884
aI1957
aI2236
aI2277
aI2676
aI3237
aI3742
aI4045
aI4677
aI4776
aI4939
aI5169
aI6326
aI6870
aI7551
aI7644
aI7868
aI8099
aI8402
aI8750
aI8930
aI9768
aI10508
aI10564
aI10673
aI11579
aI11588
aI11725
aI12286
aI12772
aI12848
aI12933
aI12957
aI12986
aa(lp121
I414
aI1798
aI4835
aI5786
aI8178
aI10945
aI11062
aI12211
aa(lp122
I2014
aI3448
aI4152
aI8019
aI8160
aI9950
aI11373
aI11395
aa(lp123
I1844
aI2027
aI2610
aI3553
aI5843
aI5925
aI6948
aI7610
aI7799
aI7921
aI10084
aI11158
aI11698
aI13404
aa(lp124
I775
aI1132
aI1469
aI1669
aI2028
aI2611
aI3162
aI5844
aI5926
aI7350
aI7373
aI7800
aI10268
aI13405
aa(lp125
I74
aI1153
aI1317
aI1767
aI1774
aI2042
aI5458
aI6320
aI7057
aI7252
aI7553
aI8079
aI8881
aI9676
aI9805
aI9909
aI10161
aI11945
aI12417
aI12500
aI12707
aI12770
aa(lp126
I1026
aI1495
aI1921
aI2043
aI3469
aI3615
aI5459
aI7084
aI7759
aI8080
aI9169
aI9554
aI9686
aI10288
aI11923
aI12566
aa(lp127
I591
aI906
aI928
aI1003
aI1141
aI1380
aI1398
aI2049
aI2389
aI2777
aI4513
aI4738
aI4919
aI5078
aI5202
aI6041
aI6680
aI7202
aI7529
aI7716
aI7902
aI8096
aI8171
aI9248
aI9714
aI10713
aI11431
aI12308
aI12960
aI13450
aa(lp128
I378
aI666
aI667
aI668
aI764
aI768
aI784
aI984
aI985
aI1199
aI1261
aI1426
aI2065
aI2066
aI2186
aI2270
aI2517
aI2518
aI2577
aI2844
aI2897
aI3451
aI3626
aI3728
aI3729
aI3991
aI4086
aI4306
aI4518
aI4613
aI4756
aI5018
aI5061
aI5658
aI5693
aI6457
aI6498
aI6572
aI6829
aI6904
aI6989
aI7204
aI7274
aI7743
aI7881
aI7897
aI7906
aI7992
aI8061
aI8130
aI8292
aI8525
aI9317
aI9430
aI9818
aI10004
aI10005
aI10006
aI10098
aI10102
aI10173
aI10274
aI10347
aI10440
aI10441
aI10740
aI10747
aI10754
aI10969
aI10970
aI11179
aI11540
aI11852
aI12524
aI12525
aI12530
aI12562
aI12575
aI13051
aI13102
aI13103
aI13188
aI13328
aa(lp129
I1908
aI6004
aI7332
aI8170
aI9079
aI9713
aI10251
aI10712
aI12924
aa(lp130
I314
aI339
aI909
aI1820
aI1944
aI1974
aI2098
aI2187
aI2410
aI2629
aI2632
aI3134
aI3367
aI3383
aI3399
aI3668
aI4011
aI4540
aI4894
aI5052
aI5197
aI5590
aI5718
aI5761
aI5763
aI6023
aI7317
aI7341
aI7346
aI7348
aI7721
aI8427
aI8783
aI9117
aI9198
aI9416
aI9421
aI9590
aI9916
aI10140
aI10692
aI10942
aI11098
aI11737
aI12513
aI12558
aI12781
aI12797
aI13487
aa(lp131
I900
aI1130
aI1416
aI2109
aI2337
aI2417
aI2969
aI3071
aI3107
aI4656
aI7236
aI7286
aI7621
aI8111
aI8159
aI9466
aI11356
aI12687
aa(lp132
I630
aI722
aI1014
aI1267
aI1279
aI2150
aI2374
aI2883
aI2982
aI3687
aI4313
aI4609
aI4946
aI5238
aI5778
aI5861
aI5897
aI5943
aI6108
aI6717
aI7536
aI7589
aI7995
aI8583
aI8660
aI8712
aI8797
aI9067
aI9498
aI10115
aI10247
aI10298
aI10685
aI11343
aI11554
aI11729
aI11915
aI12052
aI12398
aI12776
aI13056
aa(lp133
I114
aI178
aI5244
aI8095
aa(lp134
I990
aI1001
aI1705
aI2184
aI2477
aI3152
aI3281
aI3624
aI3693
aI4116
aI4588
aI4601
aI4949
aI5557
aI5920
aI6520
aI6606
aI6749
aI8980
aI9143
aI10503
aI11850
aI11955
aI12581
aI13139
aI13410
aa(lp135
I1214
aI1899
aI2032
aI2038
aI2305
aI3326
aI4088
aI4537
aI5024
aI5134
aI5194
aI5688
aI6046
aI7276
aI7547
aI8277
aI9831
aI10466
aI11115
aI11885
aI11893
aI12110
aI12735
aa(lp136
I195
aI1053
aI1232
aI1288
aI1751
aI2007
aI2234
aI2319
aI2562
aI2827
aI3505
aI3572
aI3659
aI3917
aI3942
aI4108
aI4916
aI5850
aI6016
aI6267
aI6284
aI6931
aI7296
aI7496
aI8024
aI8050
aI8510
aI8640
aI8753
aI9277
aI9324
aI9829
aI10099
aI10756
aI11036
aI11051
aI11125
aI11485
aI11716
aI12188
aI12598
aI12753
aI13097
aI13105
aa(lp137
I90
aI196
aI429
aI432
aI496
aI700
aI727
aI834
aI1037
aI1054
aI1079
aI1233
aI1236
aI1289
aI1789
aI1817
aI2001
aI2235
aI2320
aI2526
aI2563
aI2737
aI2828
aI3006
aI3573
aI3623
aI3660
aI3780
aI3814
aI3918
aI3943
aI3948
aI3966
aI4082
aI4109
aI4112
aI4268
aI4739
aI4917
aI4951
aI5117
aI5150
aI5390
aI5764
aI5782
aI5846
aI5851
aI6017
aI6035
aI6063
aI6101
aI6268
aI6285
aI6780
aI6932
aI7044
aI7261
aI7497
aI8025
aI8051
aI8304
aI8314
aI8477
aI8511
aI8641
aI8722
aI8778
aI8780
aI8840
aI8859
aI8868
aI9278
aI9306
aI9325
aI9588
aI9830
aI9838
aI10100
aI10757
aI11037
aI11350
aI11440
aI11486
aI11558
aI11614
aI11717
aI12129
aI12189
aI12301
aI12665
aI12717
aI12761
aI12828
aI12939
aI13001
aI13106
aI13256
aI13429
aa(lp138
I346
aI1349
aI1382
aI1515
aI1911
aI2051
aI2285
aI2333
aI2444
aI2819
aI3004
aI3130
aI3530
aI3638
aI3688
aI3806
aI4006
aI4239
aI4263
aI4509
aI4921
aI5082
aI5087
aI5092
aI5513
aI5531
aI5544
aI5815
aI5906
aI6225
aI6356
aI6373
aI6459
aI6693
aI6770
aI6893
aI7112
aI7324
aI7334
aI7378
aI7825
aI7982
aI8550
aI9112
aI9156
aI9392
aI10002
aI10790
aI11272
aI11296
aI11471
aI11744
aI11970
aI12035
aI12198
aI12317
aI12347
aI12501
aI12874
aI12907
aI13279
aI13424
aa(lp139
I297
aI337
aI501
aI707
aI1170
aI1339
aI1377
aI2367
aI2680
aI2835
aI3153
aI3300
aI3646
aI4095
aI4104
aI4483
aI5095
aI5901
aI5948
aI6139
aI6380
aI6382
aI6483
aI6484
aI7074
aI7304
aI7736
aI7953
aI8287
aI8716
aI9738
aI9970
aI10301
aI10302
aI10380
aI10728
aI10737
aI10738
aI10749
aI10766
aI10924
aI11709
aI11834
aI11844
aI11978
aI12179
aI12478
aI12745
aI12763
aI12880
aI13088
aI13338
aa(lp140
I75
aI2368
aI8243
aI9269
aI10162
aI10336
aI11994
aI13089
aa(lp141
I323
aI2017
aI2369
aI2787
aI3496
aI3513
aI5234
aI8244
aI9270
aI10337
aI12951
aa(lp142
I806
aI914
aI1067
aI1877
aI2015
aI2380
aI3020
aI5294
aI9951
aI10901
aI10981
aI11083
aI12920
aI13183
aa(lp143
I136
aI137
aI313
aI338
aI1713
aI1761
aI1832
aI2424
aI3074
aI3146
aI3195
aI3288
aI3382
aI3707
aI3957
aI4125
aI4535
aI5049
aI5934
aI6067
aI6068
aI6657
aI6658
aI6665
aI7345
aI7449
aI7681
aI7711
aI7720
aI7877
aI8426
aI8925
aI9915
aI10146
aI10386
aI10795
aI10831
aI11097
aI11319
aI11627
aI11710
aI12033
aI12512
aa(lp144
I1074
aI1318
aI1596
aI2490
aI9876
aa(lp145
I1558
aI4053
aI4819
aI5472
aI8726
aI11073
aI12730
aa(lp146
I1163
aI1952
aI2551
aI4396
aI6330
aI7776
aI7833
aI9449
aI10116
aa(lp147
I370
aI450
aI973
aI2588
aI2845
aI2925
aI2946
aI3487
aI3740
aI3852
aI4008
aI4188
aI4769
aI5771
aI5929
aI5955
aI5993
aI6012
aI6074
aI6218
aI6480
aI6727
aI7166
aI7430
aI7654
aI7789
aI8875
aI8991
aI9437
aI9601
aI9889
aI10241
aI10577
aI11285
aI11290
aI12164
aI12333
aI13027
aI13060
aI13069
aI13081
aI13085
aI13172
aI13330
aa(lp148
I522
aI610
aI1970
aI2597
aI2875
aI3047
aI3588
aI3848
aI4375
aI4734
aI4881
aI6786
aI11638
aI11687
aI11974
aa(lp149
I523
aI551
aI595
aI931
aI1246
aI1406
aI1964
aI1971
aI2072
aI2101
aI2598
aI3048
aI3589
aI3643
aI3695
aI3737
aI3849
aI3933
aI3999
aI4444
aI4672
aI4882
aI5558
aI5686
aI6243
aI6383
aI6428
aI6744
aI6787
aI7545
aI7578
aI9851
aI10464
aI11512
aI11639
aI11688
aI11773
aI11883
aI11891
aI11975
aI12451
aI12605
aI12733
aa(lp150
I596
aI932
aI1213
aI1407
aI1898
aI1972
aI2031
aI2037
aI2102
aI2304
aI2599
aI2713
aI3049
aI3613
aI3850
aI4445
aI4565
aI4806
aI5023
aI5133
aI5193
aI5559
aI5687
aI6045
aI6429
aI6850
aI6992
aI7275
aI7546
aI8276
aI8282
aI9154
aI9623
aI9852
aI10419
aI10465
aI11114
aI11689
aI12506
aI12734
aa(lp151
I503
aI1504
aI1673
aI1872
aI1918
aI1946
aI2464
aI2672
aI3458
aI3509
aI3880
aI4017
aI4334
aI4365
aI5917
aI6081
aI6595
aI6833
aI6947
aI7192
aI7321
aI7412
aI7687
aI7892
aI8057
aI8074
aI8760
aI8884
aI8936
aI9002
aI9103
aI9253
aI9566
aI9577
aI9729
aI10541
aI11551
aI11671
aI11854
aI12350
aI12622
aI12895
aI12972
aa(lp152
I1420
aI2685
aI5580
aI8937
aa(lp153
I2693
aI2858
aI5410
aI5980
aI7203
aI8767
aI13243
aa(lp154
I652
aI1118
aI1446
aI2694
aI3654
aI5129
aI6860
aI7973
aI8768
aI10476
aI10614
aI10717
aI10875
aI11900
aI12632
aI13244
aa(lp155
I280
aI521
aI609
aI2709
aI3587
aI4160
aI4176
aI4374
aI4733
aI4880
aI5171
aI7299
aI8108
aI8407
aI9038
aI11112
aI11219
aI11973
aI12101
aI12811
aa(lp156
I52
aI281
aI294
aI1357
aI1638
aI1704
aI1888
aI2330
aI2710
aI2874
aI3393
aI4183
aI4452
aI4813
aI5241
aI5518
aI6002
aI6294
aI6548
aI6748
aI6906
aI7289
aI7502
aI7559
aI7587
aI7595
aI8353
aI8392
aI8408
aI8657
aI8789
aI8938
aI9039
aI9155
aI9288
aI9611
aI9875
aI9884
aI9898
aI10095
aI10150
aI10311
aI10516
aI11040
aI11113
aI11164
aI11215
aI11335
aI11657
aI11732
aI11956
aI12291
aI12609
aI12664
aI12771
aI12812
aI12964
aI12981
aI13091
aI13294
aa(lp157
I85
aI91
aI282
aI430
aI433
aI471
aI497
aI680
aI720
aI835
aI859
aI1038
aI1080
aI1237
aI1265
aI1291
aI1324
aI1564
aI1571
aI1753
aI1790
aI1818
aI1959
aI2002
aI2190
aI2238
aI2279
aI2321
aI2493
aI2543
aI2711
aI2738
aI2803
aI3007
aI3052
aI3507
aI3574
aI3664
aI3731
aI3744
aI3770
aI3781
aI3815
aI3858
aI3919
aI3944
aI3949
aI3967
aI4047
aI4083
aI4269
aI4352
aI4607
aI4740
aI4952
aI5391
aI5765
aI5783
aI5847
aI6064
aI6105
aI6186
aI6269
aI6328
aI6462
aI6488
aI6552
aI6781
aI6872
aI6907
aI6957
aI7045
aI7262
aI7280
aI7301
aI7498
aI7596
aI7646
aI7855
aI8039
aI8052
aI8101
aI8305
aI8315
aI8478
aI8515
aI8597
aI8642
aI8669
aI8723
aI8736
aI8755
aI8779
aI8781
aI8854
aI8858
aI8860
aI8869
aI9307
aI9361
aI9589
aI9702
aI9839
aI9997
aI10101
aI10312
aI10510
aI10566
aI10721
aI10758
aI11069
aI11351
aI11441
aI11559
aI11590
aI11615
aI11718
aI11727
aI11781
aI12014
aI12130
aI12171
aI12190
aI12276
aI12302
aI12666
aI12718
aI12755
aI12774
aI12829
aI12940
aI12988
aI13107
aI13257
aI13277
aI13430
aa(lp158
I169
aI1364
aI2016
aI2718
aI2823
aI4174
aI4668
aI4731
aI6086
aI6877
aI7059
aI8568
aI9618
aI11704
aI11817
aI12081
aI12858
aI13350
aa(lp159
I333
aI602
aI851
aI1345
aI2554
aI2591
aI2743
aI2964
aI4132
aI4525
aI4827
aI4837
aI4976
aI5089
aI5546
aI5630
aI5692
aI5732
aI6152
aI6238
aI6309
aI6418
aI6709
aI6804
aI7485
aI7827
aI7989
aI8031
aI8696
aI9056
aI9211
aI9300
aI9405
aI9493
aI9603
aI9615
aI10124
aI10215
aI10690
aI10891
aI11503
aI11511
aI11779
aI11864
aI12692
aI12890
aI13228
aI13284
aa(lp160
I387
aI1994
aI2361
aI2454
aI2475
aI2594
aI2796
aI3396
aI3425
aI3542
aI3566
aI3817
aI4076
aI4830
aI4839
aI4989
aI5263
aI5959
aI6150
aI6179
aI6241
aI6394
aI7049
aI7253
aI8998
aI9058
aI9303
aI9723
aI9971
aI10308
aI10443
aI10606
aI10701
aI10706
aI11076
aI11120
aI11394
aI11506
aI11619
aa(lp161
I17
aI269
aI426
aI2385
aI3208
aI3801
aI3895
aI3929
aI4042
aI4256
aI4749
aI5066
aI6531
aI7248
aI7406
aI7522
aI7569
aI8208
aI8237
aI8533
aI8612
aI8960
aI9005
aI9567
aI10910
aI11980
aI12005
aI12026
aI13288
aa(lp162
I1750
aI2826
aI3571
aI4266
aI5115
aI7295
aI10755
aI11035
aa(lp163
I0
aI241
aI380
aI876
aI1276
aI1411
aI1579
aI1611
aI1675
aI2466
aI2482
aI2674
aI2831
aI3284
aI3632
aI4066
aI4287
aI4778
aI4903
aI5278
aI5301
aI5669
aI5709
aI5715
aI5968
aI6126
aI6791
aI6835
aI6945
aI6976
aI7077
aI7132
aI7137
aI7163
aI7414
aI7515
aI7635
aI7660
aI7984
aI8055
aI8076
aI8192
aI8382
aI8605
aI8981
aI9434
aI9765
aI9921
aI10148
aI10260
aI10359
aI10368
aI10642
aI10663
aI11233
aI11253
aI11612
aI11684
aI12682
aI13002
aI13325
aI13373
aI13466
aa(lp164
I5067
aI6535
aI8959
aI10064
aa(lp165
I343
aI583
aI1389
aI1439
aI1651
aI1680
aI2011
aI2397
aI2623
aI2642
aI2793
aI2904
aI3682
aI3734
aI3787
aI4121
aI4698
aI4718
aI4805
aI4926
aI5130
aI5331
aI5571
aI5699
aI6489
aI6560
aI6629
aI6864
aI7002
aI7478
aI7513
aI8199
aI8538
aI8634
aI8994
aI9126
aI9173
aI9247
aI9522
aI10120
aI10411
aI10426
aI10627
aI10964
aI11195
aI11419
aI11458
aI11568
aI11739
aI11928
aI12462
aI12515
aI12552
aI12813
aI13169
aa(lp166
I1604
aI2915
aI5769
aI6653
aI7697
aI9398
aI9562
aI10783
aI11279
aI12369
aI12658
aa(lp167
I2916
aI4059
aI9399
aI12370
aa(lp168
I2991
aI3893
aI6719
aI7663
aa(lp169
I808
aI1544
aI3056
aI3871
aI5517
aI5978
aI6114
aI7501
aI8491
aI9085
aI9321
aI10542
aI10546
aI13327
aa(lp170
I649
aI809
aI3057
aI3872
aI4409
aI5839
aI7675
aI9626
aI10415
aI10487
aI11479
aI11767
aI13215
aa(lp171
I1097
aI1160
aI1393
aI1541
aI3066
aI4149
aI4909
aI5206
aI6274
aI6300
aI6472
aI7130
aI8049
aI8367
aI8541
aI8629
aI9036
aI9855
aI10052
aI11029
aI11222
aI11305
aI11764
aI11931
aI12385
aI12659
aI12674
aI12714
aa(lp172
I1100
aI1400
aI1737
aI2095
aI4960
aI4985
aI6901
aI8352
aI10855
aI11868
aI13306
aI13358
aa(lp173
I3105
aI4270
aI4794
aI6826
aI11905
aa(lp174
I170
aI200
aI238
aI1724
aI2135
aI2999
aI4192
aI5153
aI5352
aI5528
aI5623
aI7802
aI8060
aI8905
aI9196
aI9747
aI10230
aI10499
aI10889
aI11872
aI12258
aI12638
aI12850
aI13296
aa(lp175
I48
aI368
aI597
aI623
aI729
aI782
aI1202
aI1466
aI1588
aI1702
aI1915
aI2354
aI2479
aI2644
aI3141
aI3543
aI3558
aI3603
aI3605
aI3839
aI3907
aI3976
aI4202
aI4475
aI4479
aI4552
aI4610
aI4685
aI5210
aI5313
aI5536
aI5632
aI5932
aI6009
aI6058
aI6115
aI6155
aI6157
aI6198
aI6310
aI6615
aI6714
aI7787
aI8147
aI8586
aI8699
aI8744
aI8835
aI9051
aI9151
aI9432
aI9462
aI9527
aI9692
aI9739
aI9980
aI10144
aI10234
aI10281
aI10772
aI10985
aI11186
aI11522
aI11545
aI11605
aI11830
aI11875
aI12684
aI12712
aI12765
aI12837
aI13323
aa(lp176
I710
aI1155
aI1162
aI1996
aI2265
aI2403
aI3155
aI4018
aI4234
aI4439
aI4763
aI4958
aI5041
aI5676
aI6703
aI7330
aI7942
aI7954
aI8622
aI9059
aI9448
aI10925
aI13238
aI13262
aa(lp177
I2266
aI3156
aI4235
aI4959
aI8623
aI12063
aa(lp178
I524
aI776
aI1133
aI1253
aI1309
aI2029
aI2168
aI2413
aI3102
aI3163
aI4687
aI4885
aI7801
aI7862
aI8110
aI10091
aI10243
aI11180
aI13010
aI13225
aa(lp179
I44
aI267
aI397
aI569
aI749
aI964
aI1193
aI1269
aI1486
aI2060
aI3173
aI3754
aI3794
aI4635
aI5310
aI5866
aI6088
aI6666
aI6795
aI7358
aI7404
aI7423
aI7520
aI7795
aI8235
aI8418
aI9936
aI9958
aI10062
aI10858
aI10909
aI11531
aI12245
aI12248
aI12312
aI12389
aI12400
aI12820
aa(lp180
I1146
aI1521
aI1765
aI1814
aI2227
aI2365
aI2371
aI2516
aI3269
aI4136
aI4301
aI4436
aI5236
aI5796
aI6132
aI6523
aI7327
aI7562
aI7753
aI7951
aI8387
aI8480
aI8519
aI8546
aI9160
aI9780
aI10339
aI10726
aI10765
aI10878
aI11841
aI12118
aI12145
aI12279
aI12806
aI12878
aI13077
aI13148
aa(lp181
I670
aI1186
aI1285
aI1693
aI2348
aI2746
aI3289
aI3463
aI3958
aI4244
aI4246
aI5258
aI5935
aI7125
aI7712
aI8926
aI9333
aI9403
aI9656
aI9698
aI9700
aI9734
aI10190
aI10589
aI10694
aI11333
aI11628
aI11748
aI12799
aI13118
aa(lp182
I771
aI1454
aI1493
aI3303
aI6580
aa(lp183
I918
aI1419
aI1738
aI3104
aI3310
aI3319
aI3501
aI4318
aI4426
aI4484
aI5286
aI7606
aI10080
aI10164
aa(lp184
I54
aI935
aI1508
aI1697
aI1960
aI2035
aI2962
aI3193
aI3333
aI3578
aI4532
aI5188
aI5700
aI6649
aI6961
aI7462
aI7537
aI7700
aI7893
aI8014
aI8070
aI8435
aI8561
aI11009
aI11777
aI12064
aI13259
aI13282
aa(lp185
I972
aI2923
aI3347
aI3974
aI4411
aI5841
aI9234
aI10383
aI12159
aa(lp186
I230
aI316
aI341
aI672
aI1188
aI1557
aI1743
aI1822
aI1825
aI1976
aI2100
aI2412
aI2748
aI3291
aI3369
aI3670
aI3758
aI3960
aI4052
aI4217
aI4896
aI5004
aI5034
aI5260
aI5298
aI5300
aI5592
aI5720
aI5937
aI6625
aI7071
aI7086
aI7127
aI7160
aI7229
aI7319
aI7343
aI7600
aI7684
aI7723
aI8429
aI8440
aI8737
aI8785
aI9050
aI9119
aI9200
aI9418
aI9423
aI9592
aI9658
aI9691
aI9736
aI9751
aI9918
aI10147
aI10258
aI10456
aI11412
aI11424
aI11630
aI12034
aI12560
aI13047
aI13152
aa(lp187
I50
aI182
aI1243
aI1833
aI2146
aI2290
aI2390
aI2420
aI2433
aI2633
aI2887
aI3233
aI3255
aI3387
aI3562
aI4933
aI5362
aI5506
aI5887
aI6756
aI6954
aI7366
aI7518
aI7935
aI8153
aI8318
aI8638
aI8765
aI9012
aI9140
aI9630
aI9796
aI10186
aI10286
aI11012
aI11303
aI11391
aI12236
aI12345
aI12430
aI13334
aI13455
aa(lp188
I157
aI439
aI805
aI913
aI1066
aI1082
aI1876
aI2379
aI2651
aI2705
aI3404
aI3583
aI3708
aI4250
aI4631
aI4773
aI4990
aI5264
aI5293
aI6422
aI6602
aI6621
aI6886
aI7050
aI7064
aI8028
aI8201
aI8500
aI8847
aI9020
aI9487
aI9972
aI10444
aI10900
aI11077
aI11160
aI11622
aI12281
aI12610
aI12833
aa(lp189
I980
aI3413
aI6366
aI6408
aI12596
aa(lp190
I67
aI70
aI326
aI379
aI687
aI1030
aI1217
aI1410
aI1533
aI1578
aI1925
aI2020
aI2153
aI2272
aI2481
aI2625
aI3092
aI3421
aI3473
aI3491
aI3499
aI3594
aI3726
aI3968
aI4022
aI4286
aI4823
aI4998
aI5159
aI5212
aI5430
aI5668
aI6445
aI6574
aI7195
aI7514
aI7690
aI7763
aI7797
aI7923
aI8006
aI8191
aI8214
aI8604
aI8690
aI8842
aI8941
aI9598
aI9862
aI10011
aI10041
aI10088
aI10292
aI10367
aI10525
aI10955
aI11232
aI11252
aI11316
aI11836
aI11927
aI12570
aI12681
aI12720
aI12803
aI13372
aa(lp191
I1601
aI3461
aI11681
aI12343
aa(lp192
I1602
aI3462
aI7316
aI11682
aa(lp193
I2045
aI2268
aI2370
aI2788
aI3471
aI9024
aI9271
aI10338
aI12679
aI12949
aa(lp194
I2046
aI2269
aI2936
aI3472
aI3618
aI4462
aI6117
aI6124
aI8222
aI9025
aI10291
aI12680
aI12950
aI13371
aa(lp195
I838
aI1456
aI1488
aI2090
aI2091
aI2503
aI3444
aI3488
aI3833
aI4189
aI5366
aI5817
aI6201
aI6219
aI6728
aI7167
aI7431
aI7655
aI8409
aI8922
aI9338
aI9504
aI10811
aI11286
aI12131
aI12836
aI13084
aI13317
aa(lp196
I325
aI2019
aI3498
aI8246
aI11106
aI12953
aa(lp197
I318
aI2670
aI2688
aI3137
aI3323
aI3456
aI3515
aI4363
aI5800
aI5915
aI6598
aI6831
aI8882
aI8934
aI9090
aI9251
aI9727
aI10453
aI11669
aa(lp198
I1404
aI1805
aI3306
aI3516
aI4887
aI5801
aI5969
aI6333
aa(lp199
I1760
aI2521
aI3352
aI3526
aI4225
aI4582
aI5045
aI5853
aI6984
aI7025
aI7725
aI8916
aI9008
aI9582
aI9744
aI10958
aI12185
aI12729
aI12783
aa(lp200
I903
aI2769
aI3301
aI4767
aI5873
aI8263
aa(lp201
I774
aI2950
aI3554
aI4591
aI5029
aI6949
aI7208
aI7247
aI7888
aI8275
aI11510
aI11562
aI11813
aa(lp202
I3555
aI3684
aI4592
aI5030
aI5634
aI5810
aI6339
aI7314
aa(lp203
I175
aI441
aI607
aI807
aI1084
aI2068
aI2602
aI3265
aI3585
aI4372
aI4708
aI4956
aI5295
aI7780
aI8106
aI8609
aI9045
aI9952
aI10030
aI10883
aI11110
aI12029
aI12045
aI13273
aa(lp204
I176
aI1085
aI2603
aI2708
aI3586
aI4253
aI5296
aI6398
aI7781
aI8610
aI8774
aI9046
aI10239
aI10884
aa(lp205
I1826
aI3759
aI4170
aI4729
aI5848
aI6245
aI8729
aI11465
aa(lp206
I1436
aI1677
aI1950
aI3316
aI8631
aI8817
aI9384
aI10168
aI12931
aa(lp207
I260
aI638
aI958
aI1547
aI1699
aI1903
aI2415
aI11490
aI11700
aI12382
aI12742
aa(lp208
I344
aI639
aI831
aI873
aI959
aI1094
aI1129
aI1428
aI1548
aI1700
aI1904
aI2200
aI2416
aI2905
aI2918
aI3224
aI3683
aI3735
aI3788
aI4179
aI4181
aI5492
aI6257
aI6490
aI9174
aI9261
aI9395
aI10628
aI11026
aI11491
aI11701
aI11929
aI12743
aI13489
aa(lp209
I840
aI1795
aI2349
aI2446
aI2635
aI3434
aI3675
aI3835
aI4184
aI4618
aI4682
aI4832
aI5255
aI5595
aI5750
aI7564
aI8664
aI9342
aI10056
aI11444
aI11582
aI12540
aI12688
aI13086
aa(lp210
I464
aI543
aI2350
aI2447
aI2636
aI2865
aI3435
aI3489
aI3836
aI4185
aI4619
aI4683
aI5256
aI5354
aI5596
aI7656
aI8665
aI9235
aI11287
aI11445
aI11583
aI12485
aa(lp211
I2684
aI2841
aI3845
aI4138
aI6336
aa(lp212
I975
aI3196
aI3885
aI6926
aI7310
aI7766
aa(lp213
I1978
aI2181
aI3904
aI5074
aI5103
aI5223
aI6760
aI7426
aI7557
aI8022
aI9720
aI10823
aI11020
aI11283
aI11758
aI11910
aI12332
aI13418
aa(lp214
I3197
aI3198
aI3894
aI8029
aI12273
aa(lp215
I3723
aI3934
aI6244
aI7639
aI11513
aI12452
aa(lp216
I725
aI3964
aI6409
aI8838
aI11848
aI12999
aa(lp217
I1247
aI4000
aI6384
aI6745
aI11774
aI11892
aI12109
aI12549
aa(lp218
I322
aI1501
aI1536
aI1869
aI3182
aI3479
aI3971
aI4014
aI5433
aI6592
aI7693
aI7737
aI8706
aI8757
aI9444
aI9865
aI11134
aI12619
aa(lp219
I2560
aI4021
aI4766
aI5044
aI9062
aI10928
aI13265
aa(lp220
I4031
aI5321
aI10082
aI10554
aI13497
aa(lp221
I578
aI921
aI1640
aI2442
aI2687
aI2948
aI3099
aI3322
aI3436
aI3552
aI3681
aI3868
aI4032
aI4429
aI4487
aI5111
aI5842
aI5924
aI7206
aI7245
aI7609
aI7886
aI7920
aI8273
aI8556
aI9356
aI9570
aI10015
aI10083
aI10401
aI10555
aI11157
aI11508
aI11811
aI12516
aI13403
aa(lp222
I214
aI1298
aI2945
aI4035
aI4056
aI7671
aI11473
aI12178
aI13127
aa(lp223
I1209
aI1652
aI1942
aI4175
aI4373
aI8107
aI11111
aI11705
aa(lp224
I233
aI490
aI762
aI1013
aI1257
aI1849
aI2214
aI2372
aI2524
aI2763
aI2782
aI2973
aI3169
aI3276
aI3449
aI3529
aI3550
aI3761
aI4084
aI4200
aI4304
aI4473
aI4494
aI4667
aI4996
aI5037
aI5174
aI5474
aI5582
aI5792
aI6056
aI6247
aI6663
aI7089
aI7616
aI7728
aI8128
aI8186
aI8290
aI8490
aI8731
aI8740
aI8814
aI8919
aI9350
aI9441
aI9478
aI9754
aI10459
aI10528
aI10752
aI10770
aI10987
aI11065
aI11245
aI11275
aI11349
aI11529
aI11678
aI12054
aI12528
aI12732
aI12841
aI13292
aa(lp225
I3508
aI4257
aI7411
aI9001
aI9728
aI10223
aI10894
aI11853
aI12349
aI12894
aa(lp226
I726
aI4111
aI4267
aI5116
aI7043
aI13000
aa(lp227
I1077
aI4280
aI5774
aI9543
aI13071
aa(lp228
I4233
aI4281
aI4651
aI5775
aI6997
aI12230
aI12328
aa(lp229
I293
aI1219
aI1294
aI1412
aI1510
aI1580
aI2467
aI2483
aI2832
aI3183
aI3308
aI3862
aI4288
aI5161
aI5279
aI5670
aI6447
aI7035
aI7164
aI7415
aI7516
aI7661
aI8008
aI8077
aI8193
aI8383
aI8606
aI9866
aI10043
aI10261
aI10360
aI10369
aI10527
aI10643
aI10957
aI11124
aI11234
aI11603
aI11613
aI11988
aI12805
aI12818
aI12915
aI13374
aa(lp230
I511
aI1672
aI1917
aI2671
aI3324
aI3457
aI4333
aI4364
aI5748
aI6599
aI6688
aI7138
aI7191
aI7306
aI7686
aI7770
aI7891
aI8056
aI8073
aI8566
aI8935
aI8966
aI9102
aI9252
aI10462
aI10540
aI11670
aI12578
aa(lp231
I7309
aI9389
aI10455
aI12859
aa(lp232
I2525
aI3622
aI3813
aI4350
aI6034
aI8266
aI12760
aa(lp233
I881
aI2486
aI3674
aI5882
aI7092
aI8485
aI10034
aI10574
aI13443
aa(lp234
I2487
aI4760
aI6767
aI8001
aI9343
aI12112
aI12336
aI12898
aa(lp235
I34
aI763
aI1258
aI1781
aI2394
aI2478
aI2764
aI2783
aI2896
aI2974
aI3277
aI3450
aI3551
aI4026
aI4085
aI4099
aI4113
aI4172
aI4418
aI4495
aI4598
aI4745
aI4821
aI5175
aI5583
aI6008
aI6057
aI6197
aI6571
aI6676
aI7024
aI7118
aI7591
aI7642
aI7880
aI8129
aI8495
aI8656
aI8698
aI8821
aI9268
aI10644
aI10988
aI11066
aI12055
aI12234
aI12373
aI12441
aI12529
aI13407
aa(lp236
I553
aI1092
aI1684
aI1793
aI2395
aI3150
aI3213
aI4027
aI4190
aI4419
aI4496
aI5599
aI6031
aI6122
aI6608
aI6854
aI8483
aI9762
aI10152
aI10174
aI10549
aI10570
aI12140
aI12564
aI13039
aa(lp237
I88
aI1145
aI2226
aI4435
aI5795
aI7752
aI9094
aI12174
aI12991
aI13123
aI13147
aa(lp238
I89
aI4481
aI10138
aI11832
aI12175
aI12992
aI13124
aI13484
aa(lp239
I1593
aI1815
aI2377
aI2880
aI4437
aI5440
aI6318
aI6845
aI7055
aI8388
aI10139
aI11251
aI12176
aI12280
aI12807
aI12993
aI13313
aI13485
aa(lp240
I933
aI1248
aI1408
aI2600
aI2714
aI3935
aI4001
aI4446
aI5560
aI6385
aI6746
aI8207
aI11514
aI11690
aI11775
aI12453
aa(lp241
I537
aI1442
aI1757
aI4455
aI4878
aI5465
aI6403
aI7042
aI7362
aI7425
aI8579
aI9242
aI11951
aI12927
aa(lp242
I2343
aI2938
aI4197
aI4464
aI5299
aI6689
aI7307
aI9599
aI12571
aa(lp243
I33
aI376
aI1780
aI2582
aI2656
aI4098
aI4220
aI4417
aI4516
aI4597
aI4860
aI5007
aI5048
aI5106
aI5473
aI5849
aI5856
aI6987
aI7023
aI7590
aI7879
aI8820
aI10778
aI10842
aI11207
aI12372
aI12440
aI13406
aa(lp244
I3106
aI3503
aI4271
aI4486
aI4795
aI5288
aI11906
aa(lp245
I7220
aI10715
aI10873
aI11271
aa(lp246
I988
aI2182
aI3279
aI3691
aI4599
aI4947
aI5555
aI6518
aI10501
aI10543
aI11953
aI12579
aI13137
aI13408
aa(lp247
I765
aI989
aI1127
aI2183
aI2569
aI2726
aI3280
aI3364
aI3692
aI4115
aI4357
aI4600
aI4753
aI4948
aI5556
aI5976
aI6028
aI6193
aI6519
aI7499
aI7927
aI8063
aI8653
aI8979
aI9142
aI9759
aI10502
aI10544
aI11353
aI11360
aI11954
aI12580
aI13138
aI13409
aI13438
aa(lp248
I830
aI3743
aI4606
aI7470
aI7748
aI8735
aI12013
aa(lp249
I1732
aI4648
aI6188
aI9184
aI10575
aI12227
aa(lp250
I372
aI632
aI665
aI1657
aI1733
aI1777
aI1939
aI2438
aI3027
aI3348
aI3851
aI3975
aI4129
aI4230
aI4412
aI4413
aI4649
aI5365
aI6189
aI6942
aI7418
aI8762
aI8874
aI10334
aI10576
aI10865
aI11168
aI11799
aI12071
aI12228
aI12325
aI13026
aI13080
aa(lp251
I191
aI254
aI1445
aI2339
aI4521
aI4658
aI4720
aI5452
aI10704
aI12437
aa(lp252
I1366
aI2174
aI2596
aI4670
aI11387
aa(lp253
I1360
aI1453
aI1999
aI6407
aI6910
aa(lp254
I901
aI1998
aI2000
aI7302
aI9166
aI10001
aI12998
aa(lp255
I549
aI2720
aI2751
aI4562
aI4710
aI5607
aI6051
aI6054
aI6879
aI6890
aI8251
aI11648
aI13205
aa(lp256
I608
aI2595
aI3680
aI4732
aI4879
aI6784
aI11218
aI11972
aI12100
aa(lp257
I635
aI2589
aI3433
aI4214
aI4759
aI6506
aI11475
aI11801
aI12210
aa(lp258
I1962
aI4150
aI4783
aI7131
aI13261
aa(lp259
I1198
aI1260
aI1368
aI1576
aI3078
aI3230
aI3336
aI3591
aI4595
aI4612
aI4788
aI5017
aI5243
aI5386
aI5726
aI6493
aI6903
aI7466
aI7526
aI8673
aI10097
aI10976
aI11693
aa(lp260
I738
aI846
aI1993
aI2556
aI2745
aI4660
aI4785
aI4829
aI5091
aI5454
aI5552
aI5798
aI5958
aI6154
aI7841
aI7991
aI8018
aI8663
aI8893
aI9260
aI10219
aI10267
aI11270
aI11499
aI12380
aI12788
aI13230
aa(lp261
I58
aI113
aI171
aI201
aI222
aI1396
aI1725
aI2047
aI2164
aI2775
aI3000
aI3243
aI3937
aI4511
aI4846
aI5076
aI5353
aI5529
aI5624
aI6545
aI6678
aI7527
aI7714
aI7764
aI9078
aI9712
aI10231
aI10250
aI10341
aI10711
aI10890
aI11467
aI11873
aI12259
aI13052
aI13297
aI13415
aI13448
aa(lp262
I4004
aI4875
aI8580
aI12652
aI13111
aa(lp263
I159
aI2626
aI3414
aI4005
aI4876
aI5084
aI5239
aI5463
aI6401
aI8088
aI8138
aI10716
aI11294
aI11436
aI12076
aI12214
aI12630
aa(lp264
I555
aI4261
aI4536
aI9346
aI10198
aI10935
aI12888
aa(lp265
I1381
aI2050
aI4920
aI5203
aI8346
aI10253
aa(lp266
I246
aI273
aI458
aI792
aI1008
aI1171
aI1784
aI2127
aI2418
aI2431
aI2691
aI3231
aI3385
aI3389
aI3768
aI3882
aI3902
aI4141
aI4368
aI4851
aI4931
aI5013
aI5064
aI5088
aI5101
aI5224
aI5291
aI5587
aI5912
aI6226
aI6375
aI6378
aI6575
aI6685
aI6758
aI6952
aI7005
aI7326
aI7622
aI7913
aI7972
aI8114
aI8151
aI8218
aI8254
aI8272
aI8300
aI8472
aI8563
aI8585
aI8856
aI8895
aI8900
aI8921
aI8949
aI8996
aI9010
aI9040
aI9138
aI9275
aI9531
aI10134
aI10278
aI10314
aI10468
aI10475
aI10681
aI10762
aI10814
aI11048
aI11058
aI11094
aI11393
aI11460
aI11484
aI11666
aI11908
aI12018
aI12086
aI12125
aI12154
aI12194
aI12796
aI12825
aI13150
aa(lp267
I1009
aI4932
aI6576
aI8896
aI12019
aa(lp268
I332
aI4975
aI6650
aI11502
aa(lp269
I375
aI1613
aI1827
aI2781
aI4219
aI4472
aI4820
aI4898
aI5006
aI5047
aI5105
aI5594
aI5855
aI6246
aI6569
aI6986
aI7088
aI7602
aI7727
aI8442
aI8813
aI9347
aI9969
aI10438
aI10777
aI10841
aI11466
aI12232
aI12371
aI13154
aa(lp270
I1977
aI5073
aI8626
aI13417
aa(lp271
I250
aI2166
aI5143
aI6547
aI8878
aa(lp272
I204
aI225
aI251
aI536
aI1004
aI1910
aI2232
aI2857
aI2988
aI3629
aI4849
aI5079
aI5814
aI5979
aI6541
aI6737
aI7111
aI7599
aI8089
aI8172
aI9241
aI10200
aI11295
aI11470
aI12420
aI12926
aI13031
aI13301
aa(lp273
I117
aI532
aI2256
aI3502
aI4049
aI4485
aI5109
aI7607
aI7783
aI8065
aI9575
aI11753
aI11786
aI12589
aa(lp274
I466
aI1461
aI4283
aI5305
aI5402
aI6076
aI6636
aI9645
aI11226
aI12166
aI12996
aI13062
aa(lp275
I51
aI257
aI347
aI514
aI1350
aI2078
aI2140
aI2167
aI2284
aI2286
aI2634
aI2778
aI2996
aI3012
aI3689
aI3750
aI3807
aI4264
aI5144
aI5330
aI5341
aI5360
aI5532
aI5888
aI6222
aI6325
aI6357
aI6460
aI6771
aI6839
aI6894
aI7231
aI7335
aI7530
aI7981
aI8627
aI8823
aI9157
aI9412
aI10003
aI11021
aI11189
aI12346
aI12431
aI12502
aa(lp276
I3561
aI4624
aI5361
aI7831
aI9043
aI9795
aI10185
aI11282
aI11967
aa(lp277
I321
aI1535
aI3519
aI3970
aI4013
aI4441
aI5432
aI7692
aI8692
aI8756
aI9864
aI11133
aI12816
aa(lp278
I1015
aI1591
aI2665
aI4092
aI5438
aI5898
aI6109
aI8713
aI11175
aI11784
aa(lp279
I1851
aI1961
aI4105
aI5477
aI7838
aI11145
aa(lp280
I4282
aI5603
aI9081
aI10256
aa(lp281
I2300
aI5645
aI7214
aI10742
aa(lp282
I309
aI780
aI786
aI819
aI897
aI1090
aI1259
aI1575
aI2585
aI3145
aI4222
aI4275
aI4421
aI5016
aI5147
aI5191
aI5273
aI5285
aI5643
aI5656
aI6633
aI6852
aI7212
aI7294
aI7465
aI7673
aI8012
aI8454
aI8494
aI9116
aI9237
aI9471
aI10745
aI11564
aI11904
aI12293
aI12395
aI12444
aI12573
aI12866
aI12892
aI13101
aI13222
aI13267
aa(lp283
I1997
aI2558
aI4764
aI5042
aI5677
aI7943
aI9060
aI13263
aa(lp284
I2559
aI3157
aI5043
aI5678
aI10927
aI13264
aa(lp285
I4650
aI5772
aI7165
aI9600
aa(lp286
I1076
aI1457
aI2087
aI2590
aI3445
aI4498
aI5773
aI5818
aI9339
aI10645
aI12047
aI12162
aI12209
aI13082
aI13318
aa(lp287
I699
aI5149
aI5781
aI8839
aa(lp288
I656
aI4449
aI5807
aI8906
aI8968
aI13359
aa(lp289
I1058
aI2979
aI3576
aI4450
aI5808
aI8969
aI10683
aa(lp290
I556
aI1011
aI4262
aI5005
aI5046
aI6985
aI10199
aI11205
aI12889
aa(lp291
I5
aI842
aI2645
aI2730
aI3229
aI3261
aI3548
aI3979
aI4762
aI4787
aI4865
aI5214
aI5752
aI5884
aI6174
aI6442
aI6769
aI6963
aI7847
aI8522
aI8672
aI9052
aI9549
aI9820
aI9912
aI10036
aI10326
aI10966
aI10975
aI11606
aI12114
aI12766
aI12900
aI13113
aI13218
aI13236
aa(lp292
I499
aI2376
aI2834
aI5455
aI6317
aa(lp293
I213
aI296
aI335
aI452
aI500
aI1282
aI1376
aI1766
aI1771
aI2244
aI2366
aI2401
aI2499
aI2954
aI3270
aI3644
aI3645
aI4054
aI4094
aI4103
aI4482
aI5094
aI5900
aI5947
aI6379
aI6381
aI6482
aI6524
aI6686
aI6821
aI7073
aI7490
aI7735
aI7952
aI8715
aI8718
aI9096
aI9266
aI9374
aI9737
aI10050
aI10379
aI10617
aI10727
aI10736
aI10923
aI11833
aI11922
aI11976
aI12177
aI12477
aI12702
aI12762
aI12879
aI12944
aI13043
aI13087
aI13336
aa(lp294
I1283
aI2500
aI3271
aI4055
aI8146
aI8312
aI11843
aI12703
aI13044
aa(lp295
I2411
aI7342
aI7347
aI7683
aI8428
aI8784
aI9118
aI11099
aI11423
aI12782
aa(lp296
I626
aI684
aI811
aI883
aI911
aI1089
aI2248
aI2249
aI3714
aI4504
aI4611
aI5163
aI5407
aI5467
aI5953
aI6173
aI6802
aI7179
aI7381
aI7488
aI8432
aI8475
aI8671
aI8684
aI10846
aI11769
aI12222
aI12337
aI13340
aa(lp297
I5606
aI6050
aI8250
aI10596
aI10902
aa(lp298
I21
aI1511
aI2631
aI5219
aI9332
aI9402
aa(lp299
I3158
aI6137
aI10725
aI12043
aI12169
aa(lp300
I40
aI1069
aI1628
aI1708
aI2297
aI3022
aI3191
aI4460
aI5641
aI8805
aI8953
aI9380
aI9490
aI9647
aI9964
aI13063
aI13379
aa(lp301
I41
aI103
aI388
aI601
aI678
aI1070
aI1322
aI1334
aI1562
aI1566
aI1629
aI1709
aI2298
aI2309
aI2362
aI2476
aI2580
aI3023
aI3050
aI3192
aI3567
aI3662
aI3810
aI5001
aI6184
aI6660
aI6779
aI6858
aI7009
aI8037
aI8417
aI8574
aI8711
aI8806
aI8954
aI9381
aI9491
aI9648
aI9837
aI9897
aI9965
aI9977
aI10204
aI10319
aI10481
aI10601
aI10702
aI11507
aI12105
aI12128
aI12511
aI12873
aI13064
aI13160
aI13380
aa(lp302
I4973
aI6254
aI9718
aI9848
aI10192
aa(lp303
I3915
aI4538
aI10580
aI13446
aa(lp304
I590
aI2885
aI2986
aI9811
aI10442
aa(lp305
I2440
aI3765
aI3846
aI4139
aI4427
aI5875
aI6337
aI9873
aa(lp306
I1042
aI1523
aI1645
aI5182
aI5829
aI6368
aI6476
aI6667
aI7148
aI8599
aI9162
aI11371
aI12643
aa(lp307
I2795
aI6240
aI6420
aI9407
aI9667
aI11080
aI12439
aa(lp308
I3724
aI4807
aI6430
aI8283
aI9853
aa(lp309
I3746
aI6511
aI7187
aI8092
aa(lp310
I23
aI329
aI644
aI1631
aI1632
aI4211
aI5242
aI6038
aI6512
aI7188
aI9206
aI9810
aI10609
aI12536
aI12750
aI13451
aa(lp311
I711
aI949
aI1503
aI1871
aI2342
aI2689
aI4016
aI4386
aI4586
aI5916
aI6440
aI6594
aI6751
aI6832
aI7556
aI7695
aI7739
aI8708
aI8759
aI8867
aI8883
aI9446
aI9766
aI11128
aI11889
aI12621
aa(lp312
I1706
aI2185
aI4589
aI6607
aI13442
aa(lp313
I1059
aI1698
aI2742
aI2963
aI3194
aI3899
aI6708
aI7701
aI10324
aI11010
aI11549
aa(lp314
I6202
aI6216
aI6217
aI6729
aa(lp315
I1115
aI2508
aI4237
aI5525
aI6755
aI7038
aI8394
aI8795
aI13333
aI13363
aa(lp316
I256
aI362
aI993
aI1005
aI1756
aI2233
aI2627
aI3135
aI4062
aI5464
aI5697
aI6224
aI6377
aI6402
aI6521
aI6838
aI7075
aI7361
aI7843
aI8271
aI8822
aI8995
aI9042
aI10707
aI10732
aI11188
aI11950
aI12077
aI12090
aI12215
aI13035
aI13095
aI13110
aI13142
aI13302
aa(lp317
I2
aI382
aI1124
aI1413
aI1581
aI2484
aI2833
aI4068
aI4289
aI4812
aI5280
aI5671
aI5711
aI6334
aI6793
aI6978
aI7036
aI7134
aI7517
aI7837
aI8607
aI8983
aI10370
aI11235
aI11604
aI11686
aI12916
aI13468
aa(lp318
I208
aI6843
aI8518
aI12278
aa(lp319
I2299
aI6853
aI12396
aI13233
aa(lp320
I1901
aI2398
aI2968
aI4122
aI4628
aI5332
aI5572
aI6865
aI8539
aI8976
aI9127
aI10121
aI10323
aI11277
aI11740
aI12383
aI12463
aI12814
aI13020
aI13170
aI13433
aa(lp321
I548
aI2069
aI4633
aI4709
aI5266
aI6053
aI6878
aI9974
aI10446
aI11647
aI12046
aa(lp322
I915
aI2707
aI4252
aI6049
aI6397
aI6888
aI8773
aI10238
aI11646
aa(lp323
I4915
aI6207
aI6930
aI7292
aI9323
aI12752
aI13104
aa(lp324
I1636
aI6232
aI6964
aI10327
aI13129
aa(lp325
I32
aI1012
aI4666
aI5173
aI7022
aI7116
aI7878
aI11206
aI12053
aI12527
aa(lp326
I1614
aI2895
aI6196
aI6570
aI7117
aI8443
aI10439
aI11075
aI12233
aI13155
aa(lp327
I94
aI732
aI2924
aI4322
aI6995
aI9643
aI9929
aI11139
aI11878
aa(lp328
I174
aI2706
aI2822
aI3709
aI4173
aI4251
aI4371
aI4458
aI4991
aI5121
aI5265
aI6396
aI6887
aI7051
aI7065
aI7779
aI8608
aI8772
aI8848
aI9044
aI9488
aI9772
aI9962
aI10237
aI10882
aI11161
aI11816
aI12282
aI12611
aI12857
aI13349
aa(lp329
I3696
aI5122
aI7052
aI7962
aI8849
aa(lp330
I366
aI5742
aI7017
aI7033
aI7144
aI8695
aI8801
aI9106
aI9327
aI9414
aI9896
aI10297
aI11121
aI11620
aI12142
aa(lp331
I2465
aI2673
aI2830
aI3631
aI4902
aI6834
aI7162
aI7413
aI7659
aI8075
aI8381
aI9390
aI10358
aI10641
aI11601
aa(lp332
I162
aI188
aI259
aI455
aI582
aI1388
aI1437
aI1438
aI1678
aI1679
aI2010
aI2158
aI2171
aI2531
aI2535
aI2538
aI2622
aI2641
aI2792
aI2853
aI2903
aI3186
aI3329
aI3330
aI3733
aI3821
aI4169
aI4327
aI4393
aI4697
aI4717
aI4804
aI4871
aI4925
aI5336
aI5398
aI5496
aI5610
aI5869
aI6252
aI6253
aI6537
aI6559
aI6628
aI6773
aI6848
aI7001
aI7169
aI7170
aI7233
aI7792
aI8010
aI8011
aI8156
aI8242
aI8258
aI8270
aI8370
aI8422
aI8468
aI8632
aI8633
aI8791
aI8993
aI9246
aI9484
aI9486
aI9501
aI9521
aI9638
aI9695
aI9717
aI10410
aI10425
aI10598
aI10696
aI10731
aI10802
aI10963
aI11171
aI11194
aI11239
aI11365
aI11418
aI11455
aI11464
aI11566
aI11567
aI11599
aI11757
aI11963
aI12253
aI12449
aI12489
aI12504
aI12551
aI13428
aa(lp333
I189
aI2107
aI4379
aI4652
aI6538
aI6582
aI7171
aI7619
aI8259
aI9033
aI10697
aI11366
aI11696
aI11996
aI12224
aI13165
aa(lp334
I308
aI650
aI866
aI2208
aI2505
aI3058
aI3873
aI5646
aI7093
aI7178
aI7215
aI7676
aI9470
aI9627
aI10416
aI10488
aI10743
aI11480
aI13235
aI13444
aa(lp335
I1893
aI7456
aI8677
aI9076
aa(lp336
I168
aI1435
aI1634
aI2456
aI2652
aI2717
aI2798
aI3427
aI4078
aI4153
aI4558
aI6085
aI6295
aI6564
aI7255
aI7961
aI8161
aI8389
aI8404
aI9000
aI9305
aI9877
aI11374
aI11396
aI11703
aI12358
aI12411
aa(lp337
I3721
aI4161
aI5172
aI7300
aI8109
aI11336
aI11762
aI12084
aa(lp338
I510
aI997
aI1502
aI1870
aI2274
aI2341
aI3475
aI3593
aI4015
aI4332
aI4385
aI4585
aI4744
aI4997
aI5434
aI6573
aI6593
aI6687
aI6899
aI7305
aI7890
aI8286
aI8565
aI8707
aI8721
aI8758
aI8965
aI9101
aI9267
aI10461
aI10539
aI10553
aI10618
aI11123
aI11489
aI11977
aI12059
aI12149
aI12156
aI12577
aI12620
aI12945
aI13337
aa(lp339
I5218
aI7682
aI9048
aI9136
aI9442
aI11264
aI11422
aI13473
aa(lp340
I1301
aI1391
aI3671
aI3996
aI4038
aI4241
aI4468
aI5132
aI6290
aI6304
aI6307
aI6683
aI6697
aI7351
aI7820
aI9027
aI9465
aI10269
aI10366
aI11033
aI11280
aI11339
aI12037
aI12686
aI12746
aI13175
aa(lp341
I1610
aI1674
aI5714
aI6125
aI12522
aa(lp342
I30
aI217
aI659
aI1506
aI3866
aI4815
aI5972
aI6094
aI6934
aI7460
aI8909
aI10018
aI10404
aI12473
aI13161
aI13392
aa(lp343
I391
aI526
aI849
aI1430
aI1968
aI2741
aI3338
aI3477
aI3898
aI4400
aI4781
aI4974
aI5032
aI5476
aI5542
aI5628
aI5690
aI6707
aI6811
aI7483
aI7822
aI10213
aI11341
aI11548
aI12093
aI13073
aI13491
aa(lp344
I190
aI392
aI527
aI850
aI1969
aI2980
aI3166
aI3339
aI3946
aI4424
aI4657
aI4719
aI5033
aI5189
aI5629
aI5691
aI6812
aI7463
aI7484
aI7823
aI10123
aI10214
aI11778
aI12065
aI13074
aI13492
aa(lp345
I559
aI1221
aI1986
aI5597
aI5602
aI6731
aI7383
aI7566
aI9080
aI9659
aI11224
aa(lp346
I2345
aI6534
aI9653
aI10066
aI10586
aI13470
aI13486
aa(lp347
I4467
aI5110
aI6303
aI6827
aI7608
aI10166
aI12603
aa(lp348
I2094
aI8351
aI8451
aI8803
aI8818
aI8819
aI10169
aI12436
aa(lp349
I14
aI81
aI148
aI384
aI869
aI888
aI1114
aI2129
aI2507
aI2669
aI2820
aI2888
aI2961
aI3283
aI3443
aI3531
aI3546
aI3611
aI4065
aI4515
aI4900
aI4942
aI4955
aI5083
aI5093
aI5158
aI5393
aI5443
aI5507
aI5514
aI5524
aI5545
aI5661
aI5863
aI5907
aI6280
aI6314
aI6522
aI6542
aI6555
aI6577
aI6721
aI7037
aI7076
aI7260
aI7283
aI7504
aI7624
aI7830
aI7936
aI7983
aI8116
aI8303
aI8350
aI8393
aI8466
aI8589
aI8766
aI8951
aI9113
aI9205
aI9287
aI9513
aI9893
aI10287
aI10346
aI10431
aI10470
aI10764
aI10816
aI10995
aI11096
aI11310
aI11323
aI11459
aI11557
aI11735
aI11759
aI12036
aI12089
aI12240
aI12318
aI12875
aI13006
aI13096
aI13135
aI13143
aa(lp350
I767
aI2576
aI3625
aI4359
aI4755
aI9461
aI11185
aI11362
aa(lp351
I3181
aI4583
aI7079
aI10493
aI12966
aa(lp352
I4584
aI7080
aI9764
aI10315
aI12817
aI12967
aa(lp353
I518
aI755
aI1226
aI3177
aI3390
aI6390
aI7698
aI12296
aa(lp354
I519
aI756
aI848
aI934
aI1227
aI1302
aI1671
aI1696
aI2917
aI3391
aI4039
aI4395
aI4531
aI5031
aI5627
aI5878
aI6391
aI6698
aI6960
aI7173
aI7352
aI7699
aI7775
aI7832
aI9028
aI9357
aI10322
aI10682
aI11547
aI11776
aI13226
aa(lp355
I410
aI1692
aI2409
aI5051
aI7724
aI7941
aI8846
aI9047
aI9655
aI10189
aI10588
aI11736
aI13117
aa(lp356
I232
aI489
aI1848
aI2523
aI2655
aI3168
aI3528
aI4199
aI4995
aI5791
aI6007
aI6662
aI7641
aI8727
aI8730
aI8739
aI8918
aI9477
aI9753
aI10458
aI10666
aI10751
aI10769
aI10960
aI11074
aI11244
aI11348
aI12731
aI12840
aI13049
aa(lp357
I2257
aI3176
aI7784
aI10028
aI13432
aa(lp358
I218
aI2201
aI3476
aI4469
aI4629
aI4780
aI4886
aI5475
aI5573
aI6291
aI7226
aI7375
aI7482
aI7786
aI7821
aI8560
aI10392
aI13011
aa(lp359
I1122
aI1165
aI4810
aI6332
aI6528
aI7835
aI8058
aI9451
aa(lp360
I133
aI358
aI927
aI1002
aI1140
aI1397
aI1892
aI3923
aI3938
aI6040
aI6679
aI7715
aI7765
aI7901
aI7931
aI8877
aI10023
aI10178
aI10276
aI11230
aI11430
aI12959
aI13176
aI13449
aa(lp361
I444
aI461
aI538
aI1174
aI2334
aI3905
aI4456
aI4934
aI6214
aI6882
aI7625
aI7916
aI8168
aI11632
aa(lp362
I1102
aI1310
aI1343
aI1470
aI3342
aI3672
aI3771
aI4381
aI4654
aI4796
aI4911
aI5274
aI7958
aI9793
aI10916
aI11034
aI11210
aI12038
aI12226
aI12297
aI12747
aI12869
aa(lp363
I56
aI937
aI1852
aI3335
aI4106
aI4534
aI5207
aI5478
aI6645
aI6651
aI6813
aI7539
aI7839
aI7895
aI8016
aI8072
aI8437
aI10053
aI11146
aI11765
aI12138
aa(lp364
I1292
aI5277
aI9907
aI11611
aa(lp365
I1958
aI2581
aI2677
aI3051
aI4046
aI4678
aI6327
aI6871
aI7552
aI8100
aI8751
aI9996
aI10509
aI10515
aI10639
aI10674
aI11580
aI11589
aI11726
aI12934
aI12958
aa(lp366
I404
aI456
aI1414
aI1836
aI2025
aI3069
aI3199
aI3340
aI3995
aI5380
aI5704
aI5729
aI6096
aI7234
aI7650
aI7956
aI8157
aI8792
aI9791
aI10242
aI10953
aI11338
aI11354
aI12867
aa(lp367
I2510
aI5080
aI7003
aI7221
aI8167
aI8197
aI8347
aa(lp368
I976
aI4824
aI6927
aI12274
aI12470
aa(lp369
I324
aI2018
aI3419
aI5235
aI8245
aa(lp370
I1409
aI1900
aI2033
aI2039
aI2306
aI2601
aI2715
aI2767
aI3936
aI4002
aI4447
aI4808
aI5135
aI5561
aI6047
aI6386
aI6431
aI6747
aI7277
aI7548
aI8278
aI11691
aI11886
aI11894
aI12736
aa(lp371
I209
aI2327
aI2678
aI6820
aI6844
aI8310
aI9095
aa(lp372
I183
aI226
aI363
aI448
aI539
aI693
aI994
aI1244
aI1383
aI1516
aI1834
aI1879
aI1979
aI2052
aI2147
aI2212
aI2291
aI2391
aI2421
aI2434
aI2445
aI2511
aI2628
aI2799
aI2860
aI3005
aI3131
aI3136
aI3234
aI3256
aI3388
aI3563
aI3639
aI4145
aI4240
aI4510
aI4627
aI4793
aI4922
aI5081
aI5104
aI5179
aI5363
aI5527
aI5816
aI5982
aI6162
aI6359
aI6374
aI6694
aI6738
aI6757
aI6761
aI6798
aI6955
aI7004
aI7019
aI7113
aI7222
aI7367
aI7379
aI7427
aI7558
aI7627
aI7826
aI8023
aI8140
aI8154
aI8198
aI8319
aI8396
aI8551
aI8639
aI9013
aI9141
aI9393
aI9631
aI9721
aI9797
aI10187
aI10624
aI10708
aI10824
aI11013
aI11273
aI11284
aI11297
aI11304
aI11382
aI11406
aI11634
aI11745
aI11911
aI11971
aI12199
aI12216
aI12237
aI12421
aI12908
aI13036
aI13280
aI13303
aI13335
aI13425
aI13456
aa(lp373
I80
aI447
aI692
aI868
aI887
aI2211
aI2859
aI3282
aI3545
aI4144
aI4626
aI4792
aI4877
aI4899
aI4941
aI5086
aI5392
aI5862
aI5981
aI7041
aI7230
aI7282
aI8139
aI8331
aI9512
aI10905
aI11024
aI11322
aI11381
aI11392
aI11437
aI11633
aI12134
aa(lp374
I10
aI1021
aI1108
aI1635
aI4154
aI4360
aI4935
aI5784
aI7256
aI7574
aI8020
aI8390
aI8405
aI9259
aI9878
aI10398
aI11375
aI11397
aI12359
aI12412
aI12921
aI13184
aI13203
aa(lp375
I279
aI6565
aI7298
aI8406
aI12922
aa(lp376
I485
aI1072
aI1748
aI3652
aI5099
aI8414
aI8913
aI10436
aI10898
aI11372
aI11571
aI12097
aI12378
aa(lp377
I55
aI779
aI936
aI1431
aI1509
aI1882
aI2036
aI3334
aI4401
aI4533
aI5543
aI5731
aI7538
aI7894
aI8015
aI8071
aI8436
aI9576
aI10659
aI11183
aI12137
aI13260
aa(lp378
I1612
aI4218
aI7026
aI8087
aI8441
aI10936
aI11965
aI12231
aI13153
aa(lp379
I3760
aI4171
aI7027
aI9349
aI9440
aI10937
aI11064
aI11274
aI11528
aI13291
aa(lp380
I3715
aI8487
aI11770
aI12338
aI12759
aa(lp381
I1729
aI1896
aI4273
aI4680
aI5177
aI8492
aI9523
aI12696
aa(lp382
I783
aI818
aI896
aI1574
aI1703
aI1730
aI1794
aI1897
aI1916
aI2355
aI2584
aI2766
aI3144
aI3151
aI3214
aI4191
aI4221
aI4274
aI4420
aI4480
aI4681
aI5146
aI5190
aI5272
aI5314
aI5600
aI5655
aI6116
aI6609
aI6632
aI6715
aI6855
aI7293
aI7464
aI8148
aI8453
aI8493
aI8587
aI8700
aI8745
aI9115
aI9236
aI9524
aI9528
aI10235
aI10282
aI10550
aI10571
aI10773
aI11546
aI11563
aI11831
aI11903
aI12292
aI12394
aI12443
aI12565
aI12572
aI12697
aI12865
aI13221
aI13266
aI13324
aa(lp383
I2873
aI4258
aI4389
aI4751
aI5250
aI5539
aI5852
aI8614
aI9518
aI10912
aI11404
aI12024
aI12028
aa(lp384
I20
aI409
aI1691
aI2723
aI4259
aI6895
aI7067
aI7443
aI7572
aI8135
aI8504
aI8615
aI9331
aI11300
aI11331
aI11497
aI11746
aI13116
aa(lp385
I3098
aI6306
aI8558
aI9849
aI11159
aa(lp386
I1670
aI5845
aI7374
aI8559
aa(lp387
I2872
aI3260
aI4388
aI4694
aI4750
aI7523
aI8613
aI8619
aI9517
aI10065
aI10911
aI11495
aI12023
aI12027
aI13019
aa(lp388
I669
aI4539
aI4695
aI11964
aa(lp389
I3432
aI4213
aI4279
aI4594
aI5419
aI6505
aI8686
aI11474
aI12623
aa(lp390
I1220
aI1985
aI2088
aI4232
aI4639
aI4797
aI5025
aI5601
aI7647
aI8687
aI9786
aI10046
aI12048
aI12327
aI13353
aa(lp391
I713
aI1637
aI2213
aI3275
aI3549
aI4859
aI5036
aI6675
aI9231
aI11677
aa(lp392
I480
aI1020
aI1098
aI1161
aI1205
aI1394
aI2111
aI2971
aI3067
aI3947
aI4425
aI4910
aI6275
aI6301
aI7618
aI8113
aI8630
aI8946
aI9037
aI9313
aI9856
aI10210
aI10406
aI11223
aI11306
aI12660
aI12675
aI12715
aa(lp393
I6168
aI8957
aI11637
aI12446
aa(lp394
I1606
aI1607
aI2586
aI3951
aI4761
aI5990
aI5991
aI7370
aI7371
aI7648
aI8041
aI8989
aI9539
aI9540
aI9548
aI10035
aI12113
aa(lp395
I369
aI627
aI651
aI812
aI884
aI912
aI2302
aI2587
aI3059
aI3874
aI3952
aI4079
aI4505
aI5164
aI5408
aI5468
aI5647
aI5954
aI6011
aI6803
aI7094
aI7216
aI7382
aI7489
aI7677
aI7788
aI8433
aI8476
aI8685
aI8990
aI9628
aI9888
aI9981
aI10417
aI10489
aI10744
aI10847
aI11481
aI12223
aI13341
aI13445
aa(lp396
I261
aI405
aI457
aI899
aI1415
aI2026
aI2108
aI3064
aI3070
aI3341
aI4380
aI4653
aI5381
aI5705
aI6097
aI6255
aI6583
aI7172
aI7235
aI7479
aI7620
aI7651
aI7957
aI8158
aI8648
aI8793
aI9034
aI9792
aI10193
aI10954
aI11355
aI11367
aI11697
aI11997
aI12225
aI12299
aI12868
aI13166
aa(lp397
I262
aI1159
aI1392
aI3065
aI4908
aI6299
aI7129
aI7480
aI8048
aI8366
aI8628
aI9035
aI11221
aI11930
aI11998
aI12300
aI13167
aa(lp398
I495
aI877
aI3879
aI5021
aI5708
aI5804
aI12971
aa(lp399
I4596
aI5605
aI6510
aI10228
aa(lp400
I2957
aI3493
aI7949
aI8734
aI12668
aa(lp401
I2120
aI2716
aI6084
aI7121
aI8102
aI9217
aI11804
aI13182
aI13270
aI13348
aa(lp402
I1854
aI2593
aI5799
aI6647
aI6815
aI9213
aI9302
aI10605
aI10652
aI11505
aI13121
aa(lp403
I127
aI1000
aI1463
aI3016
aI3054
aI4587
aI6605
aI7604
aI9319
aI10990
aa(lp404
I919
aI3320
aI4030
aI5320
aI6913
aI7860
aI9354
aI10081
aI13390
aa(lp405
I920
aI1390
aI2441
aI2686
aI3312
aI3321
aI3766
aI3847
aI4140
aI4428
aI5581
aI5876
aI6338
aI6682
aI6914
aI7861
aI7919
aI9355
aI9464
aI9538
aI13174
aI13224
aa(lp406
I1953
aI2552
aI6331
aI9450
aI10117
aa(lp407
I2653
aI3710
aI4459
aI4992
aI5056
aI9489
aI9773
aa(lp408
I109
aI165
aI275
aI386
aI1347
aI1432
aI2360
aI2474
aI3030
aI3565
aI7757
aI8026
aI9495
aI9646
aI9722
aI10700
aI11149
aa(lp409
I205
aI628
aI1142
aI1770
aI2148
aI2191
aI2223
aI3568
aI3685
aI4311
aI4772
aI5941
aI6128
aI6840
aI7534
aI7749
aI8499
aI8581
aI8658
aI9496
aI9930
aI10113
aI10296
aI10374
aI11552
aI11621
aI11913
aI12724
aI13144
aa(lp410
I565
aI4029
aI5319
aI6912
aI9353
aI9536
aI12601
aI13389
aa(lp411
I1608
aI4080
aI5062
aI5928
aI5992
aI6458
aI7372
aI8043
aI9541
aI10304
aI10348
aI11803
aa(lp412
I1948
aI3239
aI3474
aI4023
aI4336
aI4466
aI6591
aI7141
aI7509
aI7689
aI7870
aI9182
aI9579
aI10552
aI11488
aI12058
aI12305
aI12861
aa(lp413
I1949
aI4024
aI6900
aI7871
aI7911
aI9580
aI12150
aa(lp414
I2173
aI4669
aI9619
aI11041
aI11760
aa(lp415
I394
aI1210
aI9620
aI10032
aI11042
aI11761
aI12031
aa(lp416
I395
aI550
aI594
aI1024
aI1367
aI1963
aI2071
aI2175
aI2721
aI2752
aI3642
aI3667
aI3694
aI4563
aI4671
aI4711
aI5608
aI6052
aI6055
aI6880
aI6891
aI7577
aI8119
aI8252
aI9621
aI11043
aI11388
aI11649
aI12415
aI13187
aI13206
aa(lp417
I160
aI415
aI580
aI955
aI1215
aI1386
aI1471
aI1545
aI1554
aI1934
aI2457
aI2501
aI2536
aI2572
aI2639
aI2851
aI3184
aI3634
aI3751
aI3819
aI3925
aI4126
aI4343
aI4346
aI4391
aI4923
aI5334
aI5995
aI6024
aI6556
aI6846
aI6915
aI7510
aI7790
aI7863
aI8268
aI8354
aI8420
aI9244
aI9519
aI9636
aI9715
aI10423
aI10432
aI10961
aI11192
aI11237
aI11453
aI11597
aI11845
aI11957
aI12121
aI12192
aI12447
aI12852
aI13231
aI13383
aI13397
aa(lp418
I161
aI187
aI416
aI454
aI581
aI956
aI1216
aI1387
aI1472
aI1546
aI1555
aI1935
aI2157
aI2170
aI2458
aI2502
aI2534
aI2537
aI2573
aI2621
aI2640
aI2791
aI2852
aI2902
aI3185
aI3635
aI3752
aI3785
aI3820
aI3926
aI4127
aI4168
aI4326
aI4344
aI4347
aI4392
aI4696
aI4716
aI4803
aI4924
aI5335
aI5868
aI5996
aI6025
aI6536
aI6557
aI6558
aI6627
aI6772
aI6847
aI6916
aI7000
aI7232
aI7511
aI7791
aI7817
aI7864
aI8009
aI8155
aI8257
aI8269
aI8355
aI8369
aI8421
aI8467
aI8790
aI9245
aI9485
aI9520
aI9637
aI9694
aI9716
aI10409
aI10424
aI10433
aI10597
aI10695
aI10801
aI10962
aI11170
aI11193
aI11238
aI11363
aI11417
aI11454
aI11456
aI11463
aI11598
aI11846
aI11958
aI11962
aI12122
aI12193
aI12252
aI12448
aI12488
aI12503
aI12550
aI12740
aI12853
aI13232
aI13384
aI13398
aa(lp419
I5050
aI5760
aI7940
aI8845
aI9134
aI9654
aI10225
aI10587
aI10832
aI10896
aI11262
aI13471
aa(lp420
I1973
aI9135
aI11263
aI11332
aI11747
aI13472
aa(lp421
I3262
aI5215
aI7185
aI8497
aI10537
aI11063
aI12635
aa(lp422
I1739
aI4341
aI4728
aI5297
aI9743
aI11538
aa(lp423
I7251
aI11944
aI12499
aI13125
aa(lp424
I11
aI4159
aI4361
aI4559
aI4936
aI5170
aI5785
aI7060
aI7095
aI7257
aI8816
aI9879
aI10399
aI11266
aI11376
aI12360
aa(lp425
I1653
aI6785
aI7061
aI7096
aI8118
aI9880
aI11267
aI12083
aI12614
aa(lp426
I1742
aI2097
aI7068
aI7228
aI11711
aa(lp427
I1715
aI2195
aI7386
aI9942
aa(lp428
I6530
aI6626
aI7387
aI9943
aa(lp429
I587
aI1941
aI2296
aI3190
aI3679
aI3811
aI5640
aI8952
aI9379
aI9963
aa(lp430
I1489
aI2847
aI9505
aI9982
aI10812
aI10817
aI12132
aa(lp431
I1490
aI2697
aI2848
aI3490
aI7657
aI9506
aI9983
aI10813
aI11288
aI12133
aI12838
aa(lp432
I1473
aI2772
aI4554
aI4831
aI4967
aI6433
aI9989
aI11569
aa(lp433
I3242
aI10021
aI11695
aI13132
aa(lp434
I685
aI867
aI2209
aI2351
aI3677
aI4186
aI4620
aI4684
aI10058
aI11584
aa(lp435
I2194
aI2862
aI3354
aI12020
aa(lp436
I331
aI1018
aI1303
aI3178
aI3313
aI3556
aI4519
aI5371
aI5635
aI5811
aI6256
aI6586
aI6638
aI7315
aI7582
aI8944
aI9850
aI10126
aI10194
aa(lp437
I479
aI1019
aI1444
aI5372
aI6639
aI6789
aI6867
aI7583
aI8112
aI8945
aI9312
aI9383
aI9870
aI10195
aI10271
aI12930
aI13435
aa(lp438
I926
aI1139
aI1633
aI2292
aI3073
aI3922
aI4212
aI4492
aI6039
aI6062
aI7189
aI7900
aI10610
aI13452
aa(lp439
I4007
aI4128
aI8002
aI10333
aa(lp440
I1676
aI3285
aI5716
aI8943
aI11636
aI12683
aa(lp441
I1539
aI1643
aI1846
aI5877
aI7225
aI7785
aI8336
aI9283
aI9573
aI10391
aa(lp442
I1134
aI1603
aI3437
aI4033
aI4146
aI4488
aI6652
aI7434
aI7696
aI8374
aI9397
aI9561
aI9859
aI9953
aI10016
aI10402
aI10556
aa(lp443
I1135
aI3438
aI4147
aI4489
aI5131
aI5971
aI7459
aI7819
aI9860
aI9954
aI10017
aI10403
aa(lp444
I1681
aI2574
aI3988
aI4928
aI5284
aI7672
aI7740
aI9015
aI9459
aI12106
aa(lp445
I1595
aI5665
aI6434
aI10941
aa(lp446
I2276
aI3236
aI4073
aI5168
aI5892
aI6568
aI6869
aI7867
aI8372
aI8401
aI8929
aI10672
aI11578
aI12847
aI12985
aI13014
aI13024
aa(lp447
I145
aI243
aI245
aI271
aI272
aI797
aI1783
aI3024
aI3595
aI3767
aI3803
aI3804
aI3805
aI3881
aI3906
aI4367
aI4850
aI4929
aI4930
aI5011
aI5012
aI5063
aI5289
aI5290
aI5487
aI5488
aI5586
aI5911
aI6277
aI6404
aI6405
aI6684
aI6753
aI6797
aI8471
aI8562
aI8584
aI8635
aI8898
aI8899
aI9358
aI9529
aI9530
aI10133
aI10277
aI10313
aI10467
aI10471
aI10472
aI10474
aI10677
aI10678
aI10679
aI10680
aI10759
aI11057
aI11482
aI11483
aI12124
aI12553
aI12795
aI12824
aI13149
aI13394
aa(lp448
I723
aI1280
aI2151
aI2375
aI6316
aI9705
aI9784
aI10686
aI11249
aI11730
aI12042
aI13311
aa(lp449
I423
aI589
aI2137
aI4193
aI5071
aI5154
aI6003
aI7930
aI8624
aI10022
aI13396
aa(lp450
I629
aI3686
aI4608
aI5237
aI7535
aI8582
aI10114
aa(lp451
I1573
aI2241
aI3860
aI10723
aI12041
aI12167
aa(lp452
I13
aI147
aI2128
aI2668
aI2960
aI3442
aI3610
aI4064
aI4514
aI4954
aI5157
aI5442
aI5660
aI6279
aI6313
aI6376
aI6554
aI6720
aI6739
aI7259
aI7623
aI7829
aI8115
aI8302
aI8349
aI8465
aI8950
aI9041
aI9204
aI9274
aI9286
aI9892
aI10345
aI10430
aI10469
aI10761
aI10815
aI10994
aI11095
aI11309
aI11556
aI11734
aI12088
aI12152
aI12239
aI12651
aI13005
aI13134
aa(lp453
I377
aI1615
aI1850
aI2215
aI2657
aI3170
aI4201
aI4305
aI4474
aI4517
aI4861
aI5008
aI5857
aI6988
aI7729
aI8444
aI8741
aI8920
aI9351
aI10529
aI10753
aI10771
aI10779
aI10843
aI11208
aI11246
aI11679
aI13293
aa(lp454
I7960
aI9378
aI10918
aI11662
aa(lp455
I2404
aI4019
aI7955
aI10926
aa(lp456
I126
aI228
aI663
aI999
aI1462
aI1577
aI2461
aI3015
aI3117
aI3592
aI5387
aI5918
aI7012
aI7467
aI7592
aI7603
aI8496
aI9086
aI9318
aI10780
aI10989
aI12235
aI12295
aI13441
aa(lp457
I1542
aI2462
aI5515
aI5858
aI5919
aI7013
aa(lp458
I542
aI865
aI2207
aI2864
aI8046
aI11016
aI12405
aa(lp459
I7432
aI8410
aI8688
aI8923
aI9386
aI11017
aI11837
aa(lp460
I459
aI1172
aI1755
aI2335
aI2419
aI2432
aI2692
aI3232
aI3386
aI3903
aI4061
aI4142
aI4874
aI5102
aI5673
aI5696
aI6223
aI6759
aI6953
aI7914
aI8152
aI8169
aI8219
aI8255
aI9011
aI9139
aI10763
aI11022
aI11667
aI11909
aI11912
aI12195
aI12241
aI13180
aa(lp461
I7360
aI11023
aI12631
aI13034
aa(lp462
I6395
aI6600
aI8771
aI10236
aI10881
aI11082
aa(lp463
I412
aI671
aI1740
aI1975
aI13488
aa(lp464
I871
aI2013
aI3403
aI9019
aI9668
aa(lp465
I898
aI2914
aI5970
aI6305
aI7458
aI8557
aI8910
aI10782
aI11278
aI12368
aI12657
aI13162
aa(lp466
I1650
aI3786
aI4345
aI4870
aI5397
aI7512
aI10730
aI11364
aI11457
aI11756
aI12434
aI12741
aa(lp467
I560
aI2866
aI3837
aI4713
aI5304
aI11446
aI11692
aI12995
aa(lp468
I4526
aI4659
aI5733
aI6419
aI7493
aI12693
aa(lp469
I1627
aI4527
aI5262
aI7494
aI10295
aI10307
aI11119
aa(lp470
I292
aI7034
aI8942
aI11602
aI12914
aa(lp471
I194
aI2318
aI2561
aI4314
aI4349
aI6102
aI7495
aI7667
aI8377
aI11517
aI11715
aI12181
aI12187
aa(lp472
I4315
aI6103
aI7668
aI8378
aI8595
aI8852
aI11518
aI12182
aa(lp473
I1290
aI3769
aI4316
aI4351
aI6104
aI7669
aI8379
aI8596
aI8853
aI8857
aI11519
aI12183
aa(lp474
I1590
aI2193
aI3570
aI6959
aI9783
aa(lp475
I472
aI860
aI1325
aI1803
aI2280
aI2544
aI2754
aI2804
aI3732
aI3745
aI3827
aI5436
aI6134
aI6329
aI6463
aI7281
aI8424
aI8961
aI9362
aI9789
aI10206
aI10511
aI10567
aI11782
aI12647
aI13299
aa(lp476
I2953
aI3828
aI5437
aI6464
aI8425
aI8962
aI9790
aI10207
aI11783
aI12648
aI13300
aa(lp477
I1297
aI2402
aI2667
aI3620
aI4743
aI6138
aI7563
aI8145
aI8311
aI8520
aI9161
aI10300
aI10688
aI11842
aI12044
aI12576
aa(lp478
I2206
aI2898
aI3142
aI3977
aI4686
aI5176
aI6010
aI6616
aI8040
aI8042
aI9547
aI9927
aI11876
aI12141
aa(lp479
I6358
aI7503
aI8588
aI11046
aa(lp480
I1496
aI4988
aI5096
aI10739
aI11924
aa(lp481
I1338
aI1371
aI1809
aI2086
aI2786
aI2955
aI3240
aI4984
aI5246
aI7266
aI7491
aI8284
aI8458
aI9375
aI9922
aI10355
aI11993
aI12157
aI12479
aI13126
aa(lp482
I676
aI1600
aI2132
aI3460
aI3800
aI5377
aI7320
aI9004
aI9006
aI11550
aI11680
aI13140
aI13194
aa(lp483
I829
aI1319
aI4461
aI4605
aI5642
aI7469
aI7747
aI12012
aa(lp484
I803
aI1594
aI2363
aI3090
aI3378
aI5664
aI7856
aI8358
aI9826
aI10774
aI12269
aI13198
aa(lp485
I715
aI862
aI9185
aI12160
aa(lp486
I1752
aI2189
aI3506
aI6487
aI7297
aI8267
aI8754
aI11126
aI12599
aI12754
aI13098
aI13276
aa(lp487
I3187
aI4120
aI5399
aI5584
aI5880
aI6526
aI8469
aI9639
aI9696
aI10803
aI11172
aI11660
aI12254
aI12435
aI12490
aa(lp488
I1624
aI2336
aI2604
aI3331
aI3557
aI4394
aI5152
aI5585
aI5881
aI6527
aI7593
aI10273
aI10408
aI12255
aI12928
aI13156
aI13158
aa(lp489
I733
aI1778
aI3349
aI4414
aI6996
aI7419
aI10335
aI11140
aI11169
aI12326
aa(lp490
I212
aI856
aI939
aI940
aI1308
aI1933
aI2455
aI2952
aI3426
aI3738
aI4768
aI4891
aI5204
aI11920
aI12354
aI12606
aa(lp491
I857
aI941
aI1043
aI1474
aI1646
aI3739
aI4892
aI4968
aI5183
aI5205
aI5667
aI5743
aI5830
aI6369
aI6477
aI6668
aI7018
aI7145
aI7149
aI8600
aI9163
aI9328
aI9415
aI11921
aI12143
aI12355
aI12361
aI12607
aI12644
aa(lp492
I1796
aI4833
aI7565
aI12406
aI12541
aI12689
aa(lp493
I592
aI1109
aI2750
aI3665
aI7575
aI8104
aI8391
aI12413
aI12727
aI13204
aI13382
aa(lp494
I817
aI895
aI2765
aI5271
aI5283
aI5654
aI6631
aI9114
aI12393
aI12442
aI12864
aI13220
aa(lp495
I1923
aI4765
aI6388
aI6618
aa(lp496
I1052
aI1287
aI8752
aI9276
aI12597
aa(lp497
I566
aI3200
aI5287
aI9537
aI10165
aI12602
aa(lp498
I753
aI791
aI6006
aI7325
aI8855
aI10111
aI10791
aI11047
aI11054
aI11056
aI12091
aI12153
aI12794
aa(lp499
I6494
aI9823
aI10800
aI10821
aa(lp500
I1714
aI2096
aI2540
aI3890
aI10188
aI11006
aa(lp501
I486
aI1912
aI2489
aI3711
aI6182
aI7845
aI10217
aa(lp502
I82
aI3712
aI4369
aI6180
aI8666
aa(lp503
I83
aI718
aI2855
aI3713
aI4370
aI6550
aI8068
aI9122
aI11067
aa(lp504
I4081
aI8992
aI9438
aI11800
aI13070
aa(lp505
I442
aI916
aI1296
aI2382
aI2654
aI7964
aI8204
aI13185
aa(lp506
I3468
aI7331
aI9992
aI13239
aa(lp507
I586
aI5055
aI10029
aI11623
aI13272
aa(lp508
I5027
aI7420
aI12049
aI13320
aa(lp509
I557
aI653
aI1176
aI1417
aI1447
aI1519
aI1537
aI1726
aI1880
aI2450
aI2616
aI2695
aI2800
aI3076
aI3655
aI5180
aI5533
aI5944
aI6163
aI6227
aI6515
aI6610
aI6799
aI6861
aI6943
aI7020
aI7754
aI7933
aI7974
aI8320
aI8332
aI8644
aI8769
aI9428
aI9472
aI9732
aI10477
aI11438
aI11750
aI11901
aI12135
aI13245
aI13365
aa(lp510
I558
aI654
aI1177
aI1418
aI1448
aI1520
aI1538
aI1727
aI1881
aI2451
aI2617
aI2696
aI2801
aI3077
aI3656
aI5181
aI5534
aI5945
aI6164
aI6228
aI6516
aI6611
aI6800
aI6862
aI6944
aI7021
aI7755
aI7934
aI7975
aI8321
aI8333
aI8645
aI8770
aI9429
aI9473
aI9733
aI10478
aI11439
aI11751
aI11902
aI12136
aI13246
aI13366
aa(lp511
I1421
aI4451
aI12472
aI13391
aa(lp512
I345
aI419
aI478
aI960
aI1167
aI1443
aI1540
aI1597
aI1701
aI3736
aI8540
aI9262
aI9284
aI9376
aI9382
aI9869
aI10122
aI10167
aI10629
aI11028
aI11492
aI11663
aI11702
aI12384
aI12468
aI12929
aI13434
aa(lp513
I179
aI3749
aI5329
aI7704
aI11594
aa.